ccopy_reg
_reconstructor
p1
(cpitz.project
Project
p2
c__builtin__
object
p3
NtRp4
(dp5
S'uuid'
p6
g1
(cuuid
UUID
p7
g3
NtRp8
(dp9
S'int'
p10
L6915932614321907892402658296689213522L
sbsS'_html_filename'
p11
NsS'title'
p12
S'cauv'
p13
sS'_shell_mode'
p14
I00
sS'order_method'
p15
cpitz
by_milestone_status_pscore_created_time
p16
sS'loaded_from'
p17
S'pickle'
p18
sS'pathname'
p19
S'/home/jc593/Dev/cauv/code/pitzdir'
p20
sS'_elements'
p21
(lp22
g1
(cpitz.entity
Status
p23
c__builtin__
dict
p24
(dp25
S'pscore'
p26
I100
sS'frag'
p27
S'e1d9fc'
p28
sS'attached_files'
p29
(lp30
sg6
g1
(g7
g3
NtRp31
(dp32
g10
L300208156334241880201290222579226582105L
sbsg12
S'finished'
p33
sS'modified_time'
p34
cdatetime
datetime
p35
(S'\x07\xda\x0b\x04\x11.\x16\x0c\xa05'
tRp36
sS'created_time'
p37
g36
sS'type'
p38
S'status'
p39
sS'yaml_file_saved'
p40
g35
(S'\x07\xda\x0b\x04\x11. \x07\xfe"'
tRp41
sS'description'
p42
S''
stRp43
(dp44
g26
I100
sg27
g28
sg29
(lp45
sg6
g31
sg12
g33
sg34
g36
sg37
g36
sg38
g39
sg40
g41
sg42
S''
sbag1
(g23
g24
(dp46
g26
I50
sg27
S'742a44'
p47
sg29
(lp48
sg6
g1
(g7
g3
NtRp49
(dp50
g10
L154409908609622189382556686006061208230L
sbsg12
S'started'
p51
sg34
g35
(S'\x07\xda\x0b\x04\x11.\x16\x0c\xa5o'
tRp52
sg37
g52
sg38
S'status'
p53
sg40
g35
(S'\x07\xda\x0b\x04\x11. \x08\t\x8a'
tRp54
sg42
S''
stRp55
(dp56
g26
I50
sg27
g47
sg29
(lp57
sg6
g49
sg12
g51
sg34
g52
sg37
g52
sg38
g53
sg40
g54
sg42
S''
sbag1
(g23
g24
(dp58
g26
I40
sg27
S'25175b'
p59
sg29
(lp60
sg6
g1
(g7
g3
NtRp61
(dp62
g10
L49302717939597338662509329691997652165L
sbsg12
S'paused'
p63
sg34
g35
(S'\x07\xda\x0b\x04\x11.\x16\x0c\xa6\x96'
tRp64
sg37
g64
sg38
S'status'
p65
sg40
g35
(S'\x07\xda\x0b\x04\x11. \x08\x14 '
tRp66
sg42
S''
stRp67
(dp68
g26
I40
sg27
g59
sg29
(lp69
sg6
g61
sg12
g63
sg34
g64
sg37
g64
sg38
g65
sg40
g66
sg42
S''
sbag1
(g23
g24
(dp70
g26
I30
sg27
S'8b203f'
p71
sg29
(lp72
sg6
g1
(g7
g3
NtRp73
(dp74
g10
L184930133307461754624757499539547831947L
sbsg12
S'queued'
p75
sg34
g35
(S'\x07\xda\x0b\x04\x11.\x16\x0c\xa7\xad'
tRp76
sg37
g76
sg38
S'status'
p77
sg40
g35
(S'\x07\xda\x0b\x04\x11. \x08\x1e\x0f'
tRp78
sg42
S''
stRp79
(dp80
g26
I30
sg27
g71
sg29
(lp81
sg6
g73
sg12
g75
sg34
g76
sg37
g76
sg38
g77
sg40
g78
sg42
S''
sbag1
(g23
g24
(dp82
g26
I20
sg27
S'7f484b'
p83
sg29
(lp84
sg6
g1
(g7
g3
NtRp85
(dp86
g10
L169187340753552385114968941926541347595L
sbsg12
S'unstarted'
p87
sg34
g35
(S'\x07\xda\x0b\x04\x11.\x16\x0c\xa8\xc5'
tRp88
sg37
g88
sg38
S'status'
p89
sg40
g35
(S'\x07\xda\x0b\x04\x11. \x08(\x89'
tRp90
sg42
S''
stRp91
(dp92
g26
I20
sg27
g83
sg29
(lp93
sg6
g85
sg12
g87
sg34
g88
sg37
g88
sg38
g89
sg40
g90
sg42
S''
sbag1
(g23
g24
(dp94
g26
I10
sg27
S'2827cf'
p95
sg29
(lp96
sg6
g1
(g7
g3
NtRp97
(dp98
g10
L53375835843373154968152666848489005109L
sbsg12
S'abandoned'
p99
sg34
g35
(S'\x07\xda\x0b\x04\x11.\x16\x0c\xa9\xeb'
tRp100
sg37
g100
sg38
S'status'
p101
sg40
g35
(S'\x07\xda\x0b\x04\x11. \x082\xed'
tRp102
sg42
S''
stRp103
(dp104
g26
I10
sg27
g95
sg29
(lp105
sg6
g97
sg12
g99
sg34
g100
sg37
g100
sg38
g101
sg40
g102
sg42
S''
sbag1
(cpitz.entity.person
Person
p106
g24
(dp107
g26
I0
sg27
S'b1d6c1'
p108
sg29
(lp109
sg6
g1
(g7
g3
NtRp110
(dp111
g10
L236388421408798579890985238796729312670L
sbsg12
S'James Crosby'
p112
sg34
g35
(S'\x07\xda\x0b\x04\x11. \x07\xfc\xae'
tRp113
sg37
g113
sg38
S'person'
p114
sg40
g35
(S'\x07\xda\x0b\x04\x11. \x08<\xe9'
tRp115
sg42
S''
stRp116
(dp117
g26
I0
sg27
g108
sg29
(lp118
sg6
g110
sg12
g112
sg34
g113
sg37
g113
sg38
g114
sg40
g115
sg42
S''
sbag1
(cpitz.entity
Tag
p119
g24
(dp120
S'pscore'
p121
I0
sS'frag'
p122
S'946c0c'
p123
sS'attached_files'
p124
(lp125
sS'uuid'
p126
g1
(g7
g3
NtRp127
(dp128
S'int'
p129
L197286768475377705411888986497368205084L
sbsS'title'
p130
S'testing'
p131
sS'modified_time'
p132
g35
(S'\x07\xda\x0b\x04\x111*\x05\xb8\xcf'
tRp133
sS'created_time'
p134
g133
sS'type'
p135
S'tag'
p136
sS'yaml_file_saved'
p137
g35
(S'\x07\xda\x0b\x04\x111*\x05\xbb\xbd'
tRp138
sS'description'
p139
S'Things related to testing.'
p140
stRp141
(dp142
g121
I0
sg122
g123
sg124
(lp143
sg126
g127
sg130
g131
sg132
g133
sg134
g133
sg135
g136
sg137
g138
sg139
g140
sbag1
(cpitz.entity
Milestone
p144
g24
(dp145
S'pscore'
p146
I0
sS'frag'
p147
S'570ce0'
p148
sS'uuid'
p149
g1
(g7
g3
NtRp150
(dp151
S'int'
p152
L115709686465499050555006855212442791043L
sbsS'title'
p153
S'unscheduled'
p154
sS'modified_time'
p155
g35
(S'\x07\xda\x0b\x04\x1110\x04\xd9/'
tRp156
sS'created_time'
p157
g156
sS'reached'
p158
I00
sS'type'
p159
S'milestone'
p160
sS'yaml_file_saved'
p161
g35
(S'\x07\xda\x0b\x04\x112&\x00\x81\xec'
tRp162
sS'description'
p163
S''
stRp164
(dp165
g146
I0
sg147
g148
sg149
g150
sg153
g154
sg155
g156
sg157
g156
sg158
I00
sg159
g160
sg161
g162
sg163
S''
sbag1
(cpitz.entity
Estimate
p166
g24
(dp167
g146
I0
sg147
S'c771fe'
p168
sg149
g1
(g7
g3
NtRp169
(dp170
g152
L265108259705088528262102217610008550011L
sbsg153
S'not estimated'
p171
sg155
g35
(S'\x07\xda\x0b\x04\x1110\x04\xda\xb6'
tRp172
sS'points'
p173
I0
sg157
g172
sg159
S'estimate'
p174
sg161
g35
(S'\x07\xda\x0b\x04\x112&\x00\x8f\xa2'
tRp175
sg163
S''
stRp176
(dp177
g146
I0
sg147
g168
sg149
g169
sg153
g171
sg155
g172
sg173
I0
sg157
g172
sg159
g174
sg161
g175
sg163
S''
sbag1
(g106
g24
(dp178
g146
I0
sg147
S'3aaebe'
p179
sS'attached_files'
p180
(lp181
sg149
g1
(g7
g3
NtRp182
(dp183
g152
L78002556280449588393479432476918080669L
sbsg153
S'no owner'
p184
sg155
g35
(S'\x07\xda\x0b\x04\x1110\x04\xdc\x19'
tRp185
sg157
g185
sg159
S'person'
p186
sg161
g35
(S'\x07\xda\x0b\x04\x112&\x00\x9c\x11'
tRp187
sg163
S''
stRp188
(dp189
g146
I0
sg147
g179
sg180
(lp190
sg149
g182
sg153
g184
sg155
g185
sg157
g185
sg159
g186
sg161
g187
sg163
S''
sbag1
(g166
g24
(dp191
S'pscore'
p192
I0
sS'frag'
p193
S'd09b06'
p194
sS'uuid'
p195
g1
(g7
g3
NtRp196
(dp197
S'int'
p198
L277284367523703929526958133625188989255L
sbsS'title'
p199
S'trivial'
p200
sS'modified_time'
p201
g35
(S'\x07\xda\x0b\x04\x116+\ry.'
tRp202
sS'points'
p203
I1
sS'created_time'
p204
g202
sS'type'
p205
S'estimate'
p206
sS'yaml_file_saved'
p207
g35
(S'\x07\xda\x0b\x04\x116+\r|\x9c'
tRp208
sS'description'
p209
S'Simple task, should not take more than an hour.'
p210
stRp211
(dp212
g192
I0
sg193
g194
sg195
g196
sg199
g200
sg201
g202
sg203
I1
sg204
g202
sg205
g206
sg207
g208
sg209
g210
sbag1
(g166
g24
(dp213
S'pscore'
p214
I0
sS'frag'
p215
S'e06251'
p216
sS'uuid'
p217
g1
(g7
g3
NtRp218
(dp219
S'int'
p220
L298257563599997189979885110366072744596L
sbsS'title'
p221
S'small project'
p222
sS'modified_time'
p223
g35
(S'\x07\xda\x0b\x04\x12\x19"\x06\xeck'
tRp224
sS'points'
p225
I5
sS'created_time'
p226
g224
sS'type'
p227
S'estimate'
p228
sS'yaml_file_saved'
p229
g35
(S'\x07\xda\x0b\x04\x12\x19"\x06\xf0\x0f'
tRp230
sS'description'
p231
S'Small project, best dealt with by one person, probably taking several hours.'
p232
stRp233
(dp234
g214
I0
sg215
g216
sg217
g218
sg221
g222
sg223
g224
sg225
I5
sg226
g224
sg227
g228
sg229
g230
sg231
g232
sbag1
(g166
g24
(dp235
S'pscore'
p236
I0
sS'frag'
p237
S'af15d8'
p238
sS'uuid'
p239
g1
(g7
g3
NtRp240
(dp241
S'int'
p242
L232728329951956224362343003393279330573L
sbsS'title'
p243
S'significant project'
p244
sS'modified_time'
p245
g35
(S'\x07\xda\x0b\x04\x12\x1c\x0c\rM\xb7'
tRp246
sS'points'
p247
I25
sS'created_time'
p248
g246
sS'type'
p249
S'estimate'
p250
sS'yaml_file_saved'
p251
g35
(S'\x07\xda\x0b\x04\x12\x1c\x0c\rQw'
tRp252
sS'description'
p253
S'A significant amount of work, several days or more, probably suitable for\ncollaberation between more than one person, and requiring significant design\ndecisions.'
p254
stRp255
(dp256
g236
I0
sg237
g238
sg239
g240
sg243
g244
sg245
g246
sg247
I25
sg248
g246
sg249
g250
sg251
g252
sg253
g254
sbag1
(g119
g24
(dp257
S'pscore'
p258
I0
sS'frag'
p259
S'8da7e1'
p260
sS'attached_files'
p261
(lp262
sS'uuid'
p263
g1
(g7
g3
NtRp264
(dp265
S'int'
p266
L188292841895424093544817790897208843631L
sbsS'title'
p267
S'image processing'
p268
sS'modified_time'
p269
g35
(S'\x07\xda\x0b\x04\x12\x1d\x1c\t\xeb\x18'
tRp270
sS'created_time'
p271
g270
sS'type'
p272
S'tag'
p273
sS'yaml_file_saved'
p274
g35
(S'\x07\xda\x0b\x04\x12\x1d\x1c\t\xeey'
tRp275
sS'description'
p276
S'Related to image processing (including processing sonar images).'
p277
stRp278
(dp279
g258
I0
sg259
g260
sg261
(lp280
sg263
g264
sg267
g268
sg269
g270
sg271
g270
sg272
g273
sg274
g275
sg276
g277
sbag1
(g119
g24
(dp281
S'pscore'
p282
I0
sS'frag'
p283
S'cf2b7e'
p284
sS'attached_files'
p285
(lp286
sS'uuid'
p287
g1
(g7
g3
NtRp288
(dp289
S'int'
p290
L275376028904049931937057396630085839418L
sbsS'title'
p291
S'gui'
p292
sS'modified_time'
p293
g35
(S'\x07\xda\x0b\x04\x12\x1e\x07\x0c\xe0\xd8'
tRp294
sS'created_time'
p295
g294
sS'type'
p296
S'tag'
p297
sS'yaml_file_saved'
p298
g35
(S'\x07\xda\x0b\x04\x12\x1e\x07\x0c\xe4\x0b'
tRp299
sS'description'
p300
S'Relating to the various Graphical User Interfaces.'
p301
stRp302
(dp303
g282
I0
sg283
g284
sg285
(lp304
sg287
g288
sg291
g292
sg293
g294
sg295
g294
sg296
g297
sg298
g299
sg300
g301
sbag1
(cpitz.entity.task
Task
p305
g24
(dp306
S'status'
p307
g91
sg146
I0
sg163
S'Our testing is currently completely add hoc, and largely absent. We should use\nthe CMake ctest tool, or something else, to do proper regression tests.\nWhatever is chosen, it must be easy to add tests, and easy to see run the tests\nand see results.\n\nThis task concerns only the testing framework and not any actual tests.'
p308
sg153
S'Testing Framework'
p309
sS'tags'
p310
(lp311
g141
asg155
g35
(S'\x07\xda\x0b\x04\x112&\x00\x7f\xa8'
tRp312
sS'owner'
p313
g188
sg147
S'cbcbce'
p314
sS'components'
p315
(lp316
sS'milestone'
p317
g164
sg157
g312
sS'estimate'
p318
g176
sg159
S'task'
p319
sg161
g35
(S'\x07\xda\x0b\x04\x112&\x00\xa9e'
tRp320
sg149
g1
(g7
g3
NtRp321
(dp322
g152
L270891506143537094358496111725559148591L
sbstRp323
(dp324
g307
g85
sg146
I0
sg163
g308
sg153
g309
sg310
(lp325
g127
asg155
g312
sg313
g182
sg147
g314
sg315
(lp326
sg317
g150
sg157
g312
sg318
g169
sg159
g319
sg161
g320
sg149
g321
sbag1
(g305
g24
(dp327
S'status'
p328
g91
sS'pscore'
p329
I0
sS'description'
p330
S"For testing, a simulator will come in very useful. We will want to test both\nimage processing and control loops, and eventually the AI too, without actually\nhaving to put the damn thing in a swimming pool.\n\nThe control loops can be tested very simply with a random motion input, and the\nimage processing can be tested with recorded image data. However, this will not\nallow us to test any AI, as the image data will be predetermined.\n\nTherefore, this task would be to create a physics simulator, which can also\nrender images for the webcams. We wouldn't start from scratch: most likely, we\nshould use Microsoft Robotics, as we already have something for that."
p331
sS'tags'
p332
(lp333
g141
asS'title'
p334
S'Mission Simulation'
p335
sS'modified_time'
p336
g35
(S'\x07\xda\x0b\x04\x114\r\x08\xe9{'
tRp337
sS'created_time'
p338
g337
sS'frag'
p339
S'86a468'
p340
sS'components'
p341
(lp342
sS'milestone'
p343
g164
sS'owner'
p344
g188
sS'estimate'
p345
g176
sS'type'
p346
S'task'
p347
sS'yaml_file_saved'
p348
g35
(S'\x07\xda\x0b\x04\x114\r\x08\xec('
tRp349
sS'uuid'
p350
g1
(g7
g3
NtRp351
(dp352
S'int'
p353
L178970213515695655693349548138101560954L
sbstRp354
(dp355
g328
g85
sg329
I0
sg330
g331
sg332
(lp356
g127
asg334
g335
sg336
g337
sg338
g337
sg339
g340
sg341
(lp357
sg343
g150
sg344
g182
sg345
g169
sg346
g347
sg348
g349
sg350
g351
sbasS'rerun_sort_after_append'
p358
I01
sS'entities_by_yaml_filename'
p359
(dp360
S'estimate-af15d890-9566-4996-ab77-7595a893090d.yaml'
p361
g255
sS'estimate-e0625139-c4a3-4924-b513-771a59542a94.yaml'
p362
g233
sS'status-8b203f85-d12b-47ad-ac39-cdff78453e8b.yaml'
p363
g79
sS'tag-cf2b7e76-ffa8-46e6-be99-4324b1762a3a.yaml'
p364
g302
sS'tag-8da7e1db-44a7-4b53-b9cb-bb588d4e5d6f.yaml'
p365
g278
sS'status-e1d9fcdf-5e75-4b2f-a76b-73ebe11d1c59.yaml'
p366
g43
sS'status-2827cfe2-e2a3-41c1-b052-edd9c48a6035.yaml'
p367
g103
sS'status-742a4444-7e7c-4def-a18a-a1d8540d92a6.yaml'
p368
g55
sS'person-3aaebef2-82dc-4e76-8a1e-7aafa180e49d.yaml'
p369
g188
sS'task-cbcbce6c-0c97-45f9-af4b-390d0873f02f.yaml'
p370
g323
sS'estimate-c771fe5b-b86a-45d4-a4ca-e78968b15a7b.yaml'
p371
g176
sS'status-25175bab-424d-45e9-948c-dafb7dec44c5.yaml'
p372
g67
sS'status-7f484bec-75e5-48e6-8f7a-a2a554a2cb0b.yaml'
p373
g91
sS'tag-946c0cac-4826-47b7-afeb-c70ac6ec271c.yaml'
p374
g141
sS'milestone-570ce000-20d2-47c7-9d49-e554a28f2c83.yaml'
p375
g164
sS'task-86a468ca-43f3-48fe-8a8d-de58c785567a.yaml'
p376
g354
sS'estimate-d09b06d2-b1b4-451d-96b2-e4d851d73947.yaml'
p377
g211
sS'person-b1d6c101-8a7d-4024-840a-86828583e59e.yaml'
p378
g116
ssS'entities_by_frag'
p379
(dp380
g108
g116
sS'742a44'
p381
g55
sg238
g255
sg123
g141
sS'e1d9fc'
p382
g43
sS'570ce0'
p383
g164
sS'3aaebe'
p384
g188
sg71
g79
sg314
g323
sS'7f484b'
p385
g91
sg260
g278
sg216
g233
sg340
g354
sg95
g103
sS'c771fe'
p386
g176
sg59
g67
sg284
g302
sg194
g211
ssS'entities_by_uuid'
p387
(dp388
g288
g302
sg264
g278
sg240
g255
sg97
g103
sg31
g43
sg150
g164
sg61
g67
sg351
g354
sg169
g176
sg85
g91
sg110
g116
sg127
g141
sg49
g55
sg321
g323
sg182
g188
sg218
g233
sg73
g79
sg196
g211
ssS'pidfile'
p389
S'/home/jc593/Dev/cauv/code/pitzdir/pitz.pid'
p390
sS'jinja_template'
p391
S'bag.html'
p392
sb.