ccopy_reg
_reconstructor
p1
(cpitz.project
Project
p2
c__builtin__
object
p3
NtRp4
(dp5
S'uuid'
p6
g1
(cuuid
UUID
p7
g3
NtRp8
(dp9
S'int'
p10
L6915932614321907892402658296689213522L
sbsS'_html_filename'
p11
NsS'title'
p12
S'cauv'
p13
sS'_shell_mode'
p14
I00
sS'order_method'
p15
cpitz
by_milestone_status_pscore_created_time
p16
sS'loaded_from'
p17
S'pickle'
p18
sS'pathname'
p19
S'/home/jc593/Dev/cauv/code/pitzdir'
p20
sS'_elements'
p21
(lp22
g1
(cpitz.entity
Status
p23
c__builtin__
dict
p24
(dp25
S'pscore'
p26
I100
sS'frag'
p27
S'e1d9fc'
p28
sS'attached_files'
p29
(lp30
sg6
g1
(g7
g3
NtRp31
(dp32
g10
L300208156334241880201290222579226582105L
sbsg12
S'finished'
p33
sS'modified_time'
p34
cdatetime
datetime
p35
(S'\x07\xda\x0b\x04\x11.\x16\x0c\xa05'
tRp36
sS'created_time'
p37
g36
sS'type'
p38
S'status'
p39
sS'yaml_file_saved'
p40
g35
(S'\x07\xda\x0b\x04\x11. \x07\xfe"'
tRp41
sS'description'
p42
S''
stRp43
(dp44
g26
I100
sg27
g28
sg29
(lp45
sg6
g31
sg12
g33
sg34
g36
sg37
g36
sg38
g39
sg40
g41
sg42
S''
sbag1
(g23
g24
(dp46
g26
I50
sg27
S'742a44'
p47
sg29
(lp48
sg6
g1
(g7
g3
NtRp49
(dp50
g10
L154409908609622189382556686006061208230L
sbsg12
S'started'
p51
sg34
g35
(S'\x07\xda\x0b\x04\x11.\x16\x0c\xa5o'
tRp52
sg37
g52
sg38
S'status'
p53
sg40
g35
(S'\x07\xda\x0b\x04\x11. \x08\t\x8a'
tRp54
sg42
S''
stRp55
(dp56
g26
I50
sg27
g47
sg29
(lp57
sg6
g49
sg12
g51
sg34
g52
sg37
g52
sg38
g53
sg40
g54
sg42
S''
sbag1
(g23
g24
(dp58
g26
I40
sg27
S'25175b'
p59
sg29
(lp60
sg6
g1
(g7
g3
NtRp61
(dp62
g10
L49302717939597338662509329691997652165L
sbsg12
S'paused'
p63
sg34
g35
(S'\x07\xda\x0b\x04\x11.\x16\x0c\xa6\x96'
tRp64
sg37
g64
sg38
S'status'
p65
sg40
g35
(S'\x07\xda\x0b\x04\x11. \x08\x14 '
tRp66
sg42
S''
stRp67
(dp68
g26
I40
sg27
g59
sg29
(lp69
sg6
g61
sg12
g63
sg34
g64
sg37
g64
sg38
g65
sg40
g66
sg42
S''
sbag1
(g23
g24
(dp70
g26
I30
sg27
S'8b203f'
p71
sg29
(lp72
sg6
g1
(g7
g3
NtRp73
(dp74
g10
L184930133307461754624757499539547831947L
sbsg12
S'queued'
p75
sg34
g35
(S'\x07\xda\x0b\x04\x11.\x16\x0c\xa7\xad'
tRp76
sg37
g76
sg38
S'status'
p77
sg40
g35
(S'\x07\xda\x0b\x04\x11. \x08\x1e\x0f'
tRp78
sg42
S''
stRp79
(dp80
g26
I30
sg27
g71
sg29
(lp81
sg6
g73
sg12
g75
sg34
g76
sg37
g76
sg38
g77
sg40
g78
sg42
S''
sbag1
(g23
g24
(dp82
g26
I20
sg27
S'7f484b'
p83
sg29
(lp84
sg6
g1
(g7
g3
NtRp85
(dp86
g10
L169187340753552385114968941926541347595L
sbsg12
S'unstarted'
p87
sg34
g35
(S'\x07\xda\x0b\x04\x11.\x16\x0c\xa8\xc5'
tRp88
sg37
g88
sg38
S'status'
p89
sg40
g35
(S'\x07\xda\x0b\x04\x11. \x08(\x89'
tRp90
sg42
S''
stRp91
(dp92
g26
I20
sg27
g83
sg29
(lp93
sg6
g85
sg12
g87
sg34
g88
sg37
g88
sg38
g89
sg40
g90
sg42
S''
sbag1
(g23
g24
(dp94
g26
I10
sg27
S'2827cf'
p95
sg29
(lp96
sg6
g1
(g7
g3
NtRp97
(dp98
g10
L53375835843373154968152666848489005109L
sbsg12
S'abandoned'
p99
sg34
g35
(S'\x07\xda\x0b\x04\x11.\x16\x0c\xa9\xeb'
tRp100
sg37
g100
sg38
S'status'
p101
sg40
g35
(S'\x07\xda\x0b\x04\x11. \x082\xed'
tRp102
sg42
S''
stRp103
(dp104
g26
I10
sg27
g95
sg29
(lp105
sg6
g97
sg12
g99
sg34
g100
sg37
g100
sg38
g101
sg40
g102
sg42
S''
sbag1
(cpitz.entity.person
Person
p106
g24
(dp107
g26
I0
sg27
S'b1d6c1'
p108
sg29
(lp109
sg6
g1
(g7
g3
NtRp110
(dp111
g10
L236388421408798579890985238796729312670L
sbsg12
S'James Crosby'
p112
sg34
g35
(S'\x07\xda\x0b\x04\x11. \x07\xfc\xae'
tRp113
sg37
g113
sg38
S'person'
p114
sg40
g35
(S'\x07\xda\x0b\x04\x11. \x08<\xe9'
tRp115
sg42
S''
stRp116
(dp117
g26
I0
sg27
g108
sg29
(lp118
sg6
g110
sg12
g112
sg34
g113
sg37
g113
sg38
g114
sg40
g115
sg42
S''
sbag1
(cpitz.entity
Tag
p119
g24
(dp120
S'pscore'
p121
I0
sS'frag'
p122
S'946c0c'
p123
sS'attached_files'
p124
(lp125
sS'uuid'
p126
g1
(g7
g3
NtRp127
(dp128
S'int'
p129
L197286768475377705411888986497368205084L
sbsS'title'
p130
S'testing'
p131
sS'modified_time'
p132
g35
(S'\x07\xda\x0b\x04\x111*\x05\xb8\xcf'
tRp133
sS'created_time'
p134
g133
sS'type'
p135
S'tag'
p136
sS'yaml_file_saved'
p137
g35
(S'\x07\xda\x0b\x04\x111*\x05\xbb\xbd'
tRp138
sS'description'
p139
S'Things related to testing.'
p140
stRp141
(dp142
g121
I0
sg122
g123
sg124
(lp143
sg126
g127
sg130
g131
sg132
g133
sg134
g133
sg135
g136
sg137
g138
sg139
g140
sbag1
(cpitz.entity
Milestone
p144
g24
(dp145
S'pscore'
p146
I0
sS'frag'
p147
S'570ce0'
p148
sS'uuid'
p149
g1
(g7
g3
NtRp150
(dp151
S'int'
p152
L115709686465499050555006855212442791043L
sbsS'title'
p153
S'unscheduled'
p154
sS'modified_time'
p155
g35
(S'\x07\xda\x0b\x04\x1110\x04\xd9/'
tRp156
sS'created_time'
p157
g156
sS'reached'
p158
I00
sS'type'
p159
S'milestone'
p160
sS'yaml_file_saved'
p161
g35
(S'\x07\xda\x0b\x04\x112&\x00\x81\xec'
tRp162
sS'description'
p163
S''
stRp164
(dp165
g146
I0
sg147
g148
sg149
g150
sg153
g154
sg155
g156
sg157
g156
sg158
I00
sg159
g160
sg161
g162
sg163
S''
sbag1
(cpitz.entity
Estimate
p166
g24
(dp167
g146
I0
sg147
S'c771fe'
p168
sg149
g1
(g7
g3
NtRp169
(dp170
g152
L265108259705088528262102217610008550011L
sbsg153
S'not estimated'
p171
sg155
g35
(S'\x07\xda\x0b\x04\x1110\x04\xda\xb6'
tRp172
sS'points'
p173
I0
sg157
g172
sg159
S'estimate'
p174
sg161
g35
(S'\x07\xda\x0b\x04\x112&\x00\x8f\xa2'
tRp175
sg163
S''
stRp176
(dp177
g146
I0
sg147
g168
sg149
g169
sg153
g171
sg155
g172
sg173
I0
sg157
g172
sg159
g174
sg161
g175
sg163
S''
sbag1
(g106
g24
(dp178
g146
I0
sg147
S'3aaebe'
p179
sS'attached_files'
p180
(lp181
sg149
g1
(g7
g3
NtRp182
(dp183
g152
L78002556280449588393479432476918080669L
sbsg153
S'no owner'
p184
sg155
g35
(S'\x07\xda\x0b\x04\x1110\x04\xdc\x19'
tRp185
sg157
g185
sg159
S'person'
p186
sg161
g35
(S'\x07\xda\x0b\x04\x112&\x00\x9c\x11'
tRp187
sg163
S''
stRp188
(dp189
g146
I0
sg147
g179
sg180
(lp190
sg149
g182
sg153
g184
sg155
g185
sg157
g185
sg159
g186
sg161
g187
sg163
S''
sbag1
(g166
g24
(dp191
S'pscore'
p192
I0
sS'frag'
p193
S'd09b06'
p194
sS'uuid'
p195
g1
(g7
g3
NtRp196
(dp197
S'int'
p198
L277284367523703929526958133625188989255L
sbsS'title'
p199
S'trivial'
p200
sS'modified_time'
p201
g35
(S'\x07\xda\x0b\x04\x116+\ry.'
tRp202
sS'points'
p203
I1
sS'created_time'
p204
g202
sS'type'
p205
S'estimate'
p206
sS'yaml_file_saved'
p207
g35
(S'\x07\xda\x0b\x04\x116+\r|\x9c'
tRp208
sS'description'
p209
S'Simple task, should not take more than an hour.'
p210
stRp211
(dp212
g192
I0
sg193
g194
sg195
g196
sg199
g200
sg201
g202
sg203
I1
sg204
g202
sg205
g206
sg207
g208
sg209
g210
sbag1
(g166
g24
(dp213
S'pscore'
p214
I0
sS'frag'
p215
S'e06251'
p216
sS'uuid'
p217
g1
(g7
g3
NtRp218
(dp219
S'int'
p220
L298257563599997189979885110366072744596L
sbsS'title'
p221
S'small project'
p222
sS'modified_time'
p223
g35
(S'\x07\xda\x0b\x04\x12\x19"\x06\xeck'
tRp224
sS'points'
p225
I5
sS'created_time'
p226
g224
sS'type'
p227
S'estimate'
p228
sS'yaml_file_saved'
p229
g35
(S'\x07\xda\x0b\x04\x12\x19"\x06\xf0\x0f'
tRp230
sS'description'
p231
S'Small project, best dealt with by one person, probably taking several hours.'
p232
stRp233
(dp234
g214
I0
sg215
g216
sg217
g218
sg221
g222
sg223
g224
sg225
I5
sg226
g224
sg227
g228
sg229
g230
sg231
g232
sbag1
(g166
g24
(dp235
S'pscore'
p236
I0
sS'frag'
p237
S'af15d8'
p238
sS'uuid'
p239
g1
(g7
g3
NtRp240
(dp241
S'int'
p242
L232728329951956224362343003393279330573L
sbsS'title'
p243
S'significant project'
p244
sS'modified_time'
p245
g35
(S'\x07\xda\x0b\x04\x12\x1c\x0c\rM\xb7'
tRp246
sS'points'
p247
I25
sS'created_time'
p248
g246
sS'type'
p249
S'estimate'
p250
sS'yaml_file_saved'
p251
g35
(S'\x07\xda\x0b\x04\x12\x1c\x0c\rQw'
tRp252
sS'description'
p253
S'A significant amount of work, several days or more, probably suitable for\ncollaberation between more than one person, and requiring significant design\ndecisions.'
p254
stRp255
(dp256
g236
I0
sg237
g238
sg239
g240
sg243
g244
sg245
g246
sg247
I25
sg248
g246
sg249
g250
sg251
g252
sg253
g254
sbag1
(g119
g24
(dp257
S'pscore'
p258
I0
sS'frag'
p259
S'8da7e1'
p260
sS'attached_files'
p261
(lp262
sS'uuid'
p263
g1
(g7
g3
NtRp264
(dp265
S'int'
p266
L188292841895424093544817790897208843631L
sbsS'title'
p267
S'image processing'
p268
sS'modified_time'
p269
g35
(S'\x07\xda\x0b\x04\x12\x1d\x1c\t\xeb\x18'
tRp270
sS'created_time'
p271
g270
sS'type'
p272
S'tag'
p273
sS'yaml_file_saved'
p274
g35
(S'\x07\xda\x0b\x04\x12\x1d\x1c\t\xeey'
tRp275
sS'description'
p276
S'Related to image processing (including processing sonar images).'
p277
stRp278
(dp279
g258
I0
sg259
g260
sg261
(lp280
sg263
g264
sg267
g268
sg269
g270
sg271
g270
sg272
g273
sg274
g275
sg276
g277
sbag1
(g119
g24
(dp281
S'pscore'
p282
I0
sS'frag'
p283
S'cf2b7e'
p284
sS'attached_files'
p285
(lp286
sS'uuid'
p287
g1
(g7
g3
NtRp288
(dp289
S'int'
p290
L275376028904049931937057396630085839418L
sbsS'title'
p291
S'gui'
p292
sS'modified_time'
p293
g35
(S'\x07\xda\x0b\x04\x12\x1e\x07\x0c\xe0\xd8'
tRp294
sS'created_time'
p295
g294
sS'type'
p296
S'tag'
p297
sS'yaml_file_saved'
p298
g35
(S'\x07\xda\x0b\x04\x12\x1e\x07\x0c\xe4\x0b'
tRp299
sS'description'
p300
S'Relating to the various Graphical User Interfaces.'
p301
stRp302
(dp303
g282
I0
sg283
g284
sg285
(lp304
sg287
g288
sg291
g292
sg293
g294
sg295
g294
sg296
g297
sg298
g299
sg300
g301
sbag1
(g166
g24
(dp305
S'pscore'
p306
I0
sS'frag'
p307
S'a6887e'
p308
sS'uuid'
p309
g1
(g7
g3
NtRp310
(dp311
S'int'
p312
L221360562648380518769412743827279781563L
sbsS'title'
p313
S'highly non-trivial'
p314
sS'modified_time'
p315
g35
(S'\x07\xda\x0b\x04\x12 0\x0c\xd8\xee'
tRp316
sS'points'
p317
I100
sS'created_time'
p318
g316
sS'type'
p319
S'estimate'
p320
sS'yaml_file_saved'
p321
g35
(S'\x07\xda\x0b\x04\x12 0\x0c\xdc\xd4'
tRp322
sS'description'
p323
S"Really, really, really difficult, but that's why we do it :)"
p324
stRp325
(dp326
g306
I0
sg307
g308
sg309
g310
sg313
g314
sg315
g316
sg317
I100
sg318
g316
sg319
g320
sg321
g322
sg323
g324
sbag1
(g119
g24
(dp327
S'pscore'
p328
I0
sS'frag'
p329
S'f9c421'
p330
sS'attached_files'
p331
(lp332
sS'uuid'
p333
g1
(g7
g3
NtRp334
(dp335
S'int'
p336
L331996142187771955882707416418215780478L
sbsS'title'
p337
S'sonar'
p338
sS'modified_time'
p339
g35
(S'\x07\xda\x0b\x04\x126\x0b\x011o'
tRp340
sS'created_time'
p341
g340
sS'type'
p342
S'tag'
p343
sS'yaml_file_saved'
p344
g35
(S'\x07\xda\x0b\x04\x126\x0b\x015\xb9'
tRp345
sS'description'
p346
S'Things to do with sonar.'
p347
stRp348
(dp349
g328
I0
sg329
g330
sg331
(lp350
sg333
g334
sg337
g338
sg339
g340
sg341
g340
sg342
g343
sg344
g345
sg346
g347
sbag1
(cpitz.entity.task
Task
p351
g24
(dp352
S'status'
p353
g91
sg146
I0
sg163
S'Our testing is currently completely add hoc, and largely absent. We should use\nthe CMake ctest tool, or something else, to do proper regression tests.\nWhatever is chosen, it must be easy to add tests, and easy to see run the tests\nand see results.\n\nThis task concerns only the testing framework and not any actual tests.'
p354
sg153
S'Testing Framework'
p355
sS'tags'
p356
(lp357
g141
asg155
g35
(S'\x07\xda\x0b\x04\x112&\x00\x7f\xa8'
tRp358
sS'owner'
p359
g188
sg147
S'cbcbce'
p360
sS'components'
p361
(lp362
sS'milestone'
p363
g164
sg157
g358
sS'estimate'
p364
g176
sg159
S'task'
p365
sg161
g35
(S'\x07\xda\x0b\x04\x112&\x00\xa9e'
tRp366
sg149
g1
(g7
g3
NtRp367
(dp368
g152
L270891506143537094358496111725559148591L
sbstRp369
(dp370
g353
g85
sg146
I0
sg163
g354
sg153
g355
sg356
(lp371
g127
asg155
g358
sg359
g182
sg147
g360
sg361
(lp372
sg363
g150
sg157
g358
sg364
g169
sg159
g365
sg161
g366
sg149
g367
sbag1
(g351
g24
(dp373
S'status'
p374
g91
sS'pscore'
p375
I0
sS'description'
p376
S"For testing, a simulator will come in very useful. We will want to test both\nimage processing and control loops, and eventually the AI too, without actually\nhaving to put the damn thing in a swimming pool.\n\nThe control loops can be tested very simply with a random motion input, and the\nimage processing can be tested with recorded image data. However, this will not\nallow us to test any AI, as the image data will be predetermined.\n\nTherefore, this task would be to create a physics simulator, which can also\nrender images for the webcams. We wouldn't start from scratch: most likely, we\nshould use Microsoft Robotics, as we already have something for that."
p377
sS'tags'
p378
(lp379
g141
asS'title'
p380
S'Mission Simulation'
p381
sS'modified_time'
p382
g35
(S'\x07\xda\x0b\x04\x114\r\x08\xe9{'
tRp383
sS'created_time'
p384
g383
sS'frag'
p385
S'86a468'
p386
sS'components'
p387
(lp388
sS'milestone'
p389
g164
sS'owner'
p390
g188
sS'estimate'
p391
g176
sS'type'
p392
S'task'
p393
sS'yaml_file_saved'
p394
g35
(S'\x07\xda\x0b\x04\x114\r\x08\xec('
tRp395
sS'uuid'
p396
g1
(g7
g3
NtRp397
(dp398
S'int'
p399
L178970213515695655693349548138101560954L
sbstRp400
(dp401
g374
g85
sg375
I0
sg376
g377
sg378
(lp402
g127
asg380
g381
sg382
g383
sg384
g383
sg385
g386
sg387
(lp403
sg389
g150
sg390
g182
sg391
g169
sg392
g393
sg394
g395
sg396
g397
sbag1
(g351
g24
(dp404
S'status'
p405
g91
sS'pscore'
p406
I0
sS'description'
p407
S'This will form one or more nodes for the image processing pipeline: see\nauv/pipeline/nodes/, along with appropriate messages.\n\nRequirements:\n - Identify when there is an object present in the field of view of the camera.\n - Communicate the presence of the object, and its location in the field of view\n   using messages.\n\nThis is mostly a segmentation problem: with some intelligence to know when the\nsegmented area is significant.'
p408
sS'title'
p409
S'Object Detection'
p410
sS'tags'
p411
(lp412
g278
asS'modified_time'
p413
g35
(S'\x07\xda\x0b\x04\x12)\x02\x05\x86\xb2'
tRp414
sS'owner'
p415
g188
sS'frag'
p416
S'bfc05d'
p417
sS'components'
p418
(lp419
sS'milestone'
p420
g164
sS'created_time'
p421
g414
sS'estimate'
p422
g233
sS'type'
p423
S'task'
p424
sS'yaml_file_saved'
p425
g35
(S'\x07\xda\x0b\x04\x12)\x02\x05\x89#'
tRp426
sS'uuid'
p427
g1
(g7
g3
NtRp428
(dp429
S'int'
p430
L254881373925474473357905594776071308651L
sbstRp431
(dp432
g405
g85
sg406
I0
sg407
g408
sg409
g410
sg411
(lp433
g264
asg413
g414
sg415
g182
sg416
g417
sg418
(lp434
sg420
g150
sg421
g414
sg422
g218
sg423
g424
sg425
g426
sg427
g428
sbag1
(g351
g24
(dp435
S'status'
p436
g91
sS'pscore'
p437
I0
sS'description'
p438
S'This will form one or more nodes for the image processing pipeline (see\nauv/pipeline/nodes/), along with appropriate messages.\n\nRequirements:\n - Recognise known shapes in both camera and sonar images.\n - Match known 2D targets in any position/orientation.\n - Be easily trainable with new targets.\n\nObjects already segmented by object detection should probably be used as input.\nFor camera images, a relatively high update rate will be available, it may be\nuseful to use this time-sequence cdata to improve reliability.'
p439
sS'tags'
p440
(lp441
g278
asS'title'
p442
S'Object Recognition'
p443
sS'modified_time'
p444
g35
(S'\x07\xda\x0b\x04\x120\x17\x0f\x01\xc9'
tRp445
sS'created_time'
p446
g445
sS'frag'
p447
S'6dd717'
p448
sS'components'
p449
(lp450
sS'milestone'
p451
g164
sS'owner'
p452
g188
sS'estimate'
p453
g255
sS'type'
p454
S'task'
p455
sS'yaml_file_saved'
p456
g35
(S'\x07\xda\x0b\x04\x120\x17\x0f\x04\xb0'
tRp457
sS'uuid'
p458
g1
(g7
g3
NtRp459
(dp460
S'int'
p461
L146002665530123402521296466569761536809L
sbstRp462
(dp463
g436
g85
sg437
I0
sg438
g439
sg440
(lp464
g264
asg442
g443
sg444
g445
sg446
g445
sg447
g448
sg449
(lp465
sg451
g150
sg452
g182
sg453
g240
sg454
g455
sg456
g457
sg458
g459
sbag1
(g351
g24
(dp466
S'status'
p467
g91
sS'pscore'
p468
I0
sS'description'
p469
S'Given a 360-degree sonar sweep, it should be possible to locate the position of\nthe AUV relative to previous sonar images.\n\nThis should probably be implemented as an image processing pipeline node,\nprevious images could be cachd for short-term relative position information, or\nloaded from disk as reference images for absolute positioning.'
p470
sS'tags'
p471
(lp472
g278
asS'modified_time'
p473
g35
(S'\x07\xda\x0b\x04\x127\x01\x0bD<'
tRp474
sS'owner'
p475
g188
sS'tag'
p476
S'sonar'
p477
sS'frag'
p478
S'bdd499'
p479
sS'milestone'
p480
g164
sS'created_time'
p481
g35
(S'\x07\xda\x0b\x04\x1254\x06y\x13'
tRp482
sS'estimate'
p483
g255
sS'uuid'
p484
g1
(g7
g3
NtRp485
(dp486
S'int'
p487
L252327981180241802766199876826531987370L
sbsS'title'
p488
S'Sonar Localisation'
p489
sS'components'
p490
(lp491
sS'type'
p492
S'task'
p493
sS'yaml_file_saved'
p494
g35
(S'\x07\xda\x0b\x04\x127\x01\x0bE\xa9'
tRp495
stRp496
(dp497
g467
g85
sg468
I0
sg469
g470
sg471
(lp498
g264
asg473
g474
sg475
g182
sg476
g477
sg478
g479
sg480
g150
sg481
g482
sg483
g240
sg484
g485
sg488
g489
sg490
(lp499
sg492
g493
sg494
g495
sbag1
(g351
g24
(dp500
S'status'
p501
g91
sS'pscore'
p502
I0
sS'description'
p503
S'It is possible to point the sonar in one direction, and ping continuously,\nreturning a 1D line image.\n\nWe can use this to measure the distance to, for example, a wall, as we track\nalong it.\n\nTo do this we require:\n - a way of controlling the sonar mode from the message bus\n - Relatively simple 1D image processing to either compare successive images\n   and determine aggregate movement, or to find the most significant edge in\n   the image, and then send a message containing that information.\n\nThe former probably belongs in the sonar program, the latter as a node in the\nimage processing pipeline, or possibly as another standalone program.'
p504
sS'tags'
p505
(lp506
g348
ag278
asS'title'
p507
S'Sonar Distance Tracking'
p508
sS'modified_time'
p509
g35
(S'\x07\xda\x0b\x04\x13\x03:\x0c\xdei'
tRp510
sS'created_time'
p511
g510
sS'frag'
p512
S'b4ca97'
p513
sS'components'
p514
(lp515
sS'milestone'
p516
g164
sS'owner'
p517
g188
sS'estimate'
p518
g255
sS'type'
p519
S'task'
p520
sS'yaml_file_saved'
p521
g35
(S'\x07\xda\x0b\x04\x13\x03:\x0c\xe1\x1d'
tRp522
sS'uuid'
p523
g1
(g7
g3
NtRp524
(dp525
S'int'
p526
L240312955893610295106170836661836704790L
sbstRp527
(dp528
g501
g85
sg502
I0
sg503
g504
sg505
(lp529
g334
ag264
asg507
g508
sg509
g510
sg511
g510
sg512
g513
sg514
(lp530
sg516
g150
sg517
g182
sg518
g240
sg519
g520
sg521
g522
sg523
g524
sbag1
(g351
g24
(dp531
S'status'
p532
g91
sS'pscore'
p533
I0
sS'description'
p534
S'The sonar takes several seconds to acquire a full image, in which time the\nvehicle can move considerably, distorting the image.\n\nWhen composing sonar images, it should be possible to reduce the distortion by\ntaking account, in particular, of vehicle rotation. Movement compensation would\nalso be ideal.\n\nThis probably belongs in the library that is currently used to compose sonar\ndata into radial images.'
p535
sS'title'
p536
S'Sonar Movement Compensation'
p537
sS'tags'
p538
(lp539
g348
asS'modified_time'
p540
g35
(S'\x07\xda\x0b\x04\x13\x08%\x0c\xd9\r'
tRp541
sS'owner'
p542
g188
sS'frag'
p543
S'3825c4'
p544
sS'components'
p545
(lp546
sS'milestone'
p547
g164
sS'created_time'
p548
g541
sS'estimate'
p549
g255
sS'type'
p550
S'task'
p551
sS'yaml_file_saved'
p552
g35
(S'\x07\xda\x0b\x04\x13\x08%\x0c\xdb\x83'
tRp553
sS'uuid'
p554
g1
(g7
g3
NtRp555
(dp556
S'int'
p557
L74632870439063453352218554463672053920L
sbstRp558
(dp559
g532
g85
sg533
I0
sg534
g535
sg536
g537
sg538
(lp560
g334
asg540
g541
sg542
g182
sg543
g544
sg545
(lp561
sg547
g150
sg548
g541
sg549
g240
sg550
g551
sg552
g553
sg554
g555
sbag1
(g351
g24
(dp562
S'status'
p563
g91
sS'pscore'
p564
I0
sS'description'
p565
S'This is more of a pipe-dream than an immediate goal, but nevertheless, it would\nbe awesome if we could do something like this:\n\nhttp://mi.eng.cam.ac.uk/~qp202/my_papers/BMVC09/\n\nAnd then use the resulting 3D meshes for object recognition / navigation.\n\nThe environment reconstuction case amounts to SLAM, but I think the most useful\napplication would be in object recognition.'
p566
sS'tags'
p567
(lp568
g278
asS'title'
p569
S'Object/Environment Reconstruction'
p570
sS'modified_time'
p571
g35
(S'\x07\xda\x0b\x04\x13\x0e4\r\x02\x8d'
tRp572
sS'created_time'
p573
g572
sS'frag'
p574
S'7f6821'
p575
sS'components'
p576
(lp577
sS'milestone'
p578
g164
sS'owner'
p579
g188
sS'estimate'
p580
g325
sS'type'
p581
S'task'
p582
sS'yaml_file_saved'
p583
g35
(S'\x07\xda\x0b\x04\x13\x0e4\r\x05\r'
tRp584
sS'uuid'
p585
g1
(g7
g3
NtRp586
(dp587
S'int'
p588
L169352632321095334468253388073032596086L
sbstRp589
(dp590
g563
g85
sg564
I0
sg565
g566
sg567
(lp591
g264
asg569
g570
sg571
g572
sg573
g572
sg574
g575
sg576
(lp592
sg578
g150
sg579
g182
sg580
g310
sg581
g582
sg583
g584
sg585
g586
sbag1
(g351
g24
(dp593
S'status'
p594
g91
sS'pscore'
p595
I0
sS'description'
p596
S'Yes please :)\n\nThere are probably two separate fields in which we can use SLAM: 2D from sonar\ndata, and 3D using camera images in more highly-featured environments.\n\nSLAM would actually probably not be very useful in the competition, but in the\nlong term if we ever want to send an AUV somewhere actually unknown, then it is\nessential.'
p597
sS'title'
p598
S'Simultaneous Location and Mapping'
p599
sS'tags'
p600
(lp601
g348
ag278
asS'modified_time'
p602
g35
(S'\x07\xda\x0b\x04\x13\x120\nF6'
tRp603
sS'owner'
p604
g188
sS'frag'
p605
S'389a84'
p606
sS'components'
p607
(lp608
sS'milestone'
p609
g164
sS'created_time'
p610
g603
sS'estimate'
p611
g325
sS'type'
p612
S'task'
p613
sS'yaml_file_saved'
p614
g35
(S'\x07\xda\x0b\x04\x13\x120\nH\xf2'
tRp615
sS'uuid'
p616
g1
(g7
g3
NtRp617
(dp618
S'int'
p619
L75239067287087234329855077271042790165L
sbstRp620
(dp621
g594
g85
sg595
I0
sg596
g597
sg598
g599
sg600
(lp622
g334
ag264
asg602
g603
sg604
g182
sg605
g606
sg607
(lp623
sg609
g150
sg610
g603
sg611
g310
sg612
g613
sg614
g615
sg616
g617
sbasS'rerun_sort_after_append'
p624
I01
sS'entities_by_yaml_filename'
p625
(dp626
S'tag-cf2b7e76-ffa8-46e6-be99-4324b1762a3a.yaml'
p627
g302
sS'task-bdd499fa-57cd-40e2-92c3-d5116bbd7faa.yaml'
p628
g496
sS'task-389a846b-a633-48dd-9e4e-c15d90c81315.yaml'
p629
g620
sS'estimate-d09b06d2-b1b4-451d-96b2-e4d851d73947.yaml'
p630
g211
sS'person-b1d6c101-8a7d-4024-840a-86828583e59e.yaml'
p631
g116
sS'estimate-e0625139-c4a3-4924-b513-771a59542a94.yaml'
p632
g233
sS'task-bfc05df5-bdbf-4556-98a9-be6f0042056b.yaml'
p633
g431
sS'status-e1d9fcdf-5e75-4b2f-a76b-73ebe11d1c59.yaml'
p634
g43
sS'tag-8da7e1db-44a7-4b53-b9cb-bb588d4e5d6f.yaml'
p635
g278
sS'status-742a4444-7e7c-4def-a18a-a1d8540d92a6.yaml'
p636
g55
sS'task-cbcbce6c-0c97-45f9-af4b-390d0873f02f.yaml'
p637
g369
sS'estimate-a6887e5d-4bea-416e-9f74-3a63ff631ebb.yaml'
p638
g325
sS'status-25175bab-424d-45e9-948c-dafb7dec44c5.yaml'
p639
g67
sS'task-3825c49b-bda7-4244-8ee9-c89b84dfb0a0.yaml'
p640
g558
sS'tag-946c0cac-4826-47b7-afeb-c70ac6ec271c.yaml'
p641
g141
sS'task-86a468ca-43f3-48fe-8a8d-de58c785567a.yaml'
p642
g400
sS'task-6dd7172e-50fe-4b90-ab8b-5e166f2e3b29.yaml'
p643
g462
sS'estimate-af15d890-9566-4996-ab77-7595a893090d.yaml'
p644
g255
sS'task-b4ca977e-c2d9-4939-92a5-132c732bec16.yaml'
p645
g527
sS'tag-f9c42194-191b-47ab-b66b-a8490c6fe07e.yaml'
p646
g348
sS'status-7f484bec-75e5-48e6-8f7a-a2a554a2cb0b.yaml'
p647
g91
sS'milestone-570ce000-20d2-47c7-9d49-e554a28f2c83.yaml'
p648
g164
sS'task-7f68216d-599f-4fcf-9d16-51de41fdba76.yaml'
p649
g589
sS'status-8b203f85-d12b-47ad-ac39-cdff78453e8b.yaml'
p650
g79
sS'estimate-c771fe5b-b86a-45d4-a4ca-e78968b15a7b.yaml'
p651
g176
sS'status-2827cfe2-e2a3-41c1-b052-edd9c48a6035.yaml'
p652
g103
sS'person-3aaebef2-82dc-4e76-8a1e-7aafa180e49d.yaml'
p653
g188
ssS'entities_by_frag'
p654
(dp655
g575
g589
sg330
g348
sg71
g79
sg479
g496
sg513
g527
sg95
g103
sg606
g620
sg544
g558
sg108
g116
sg238
g255
sg123
g141
sS'3aaebe'
p656
g188
sS'7f484b'
p657
g91
sg216
g233
sg284
g302
sS'742a44'
p658
g55
sS'570ce0'
p659
g164
sg360
g369
sg260
g278
sg386
g400
sg417
g431
sg448
g462
sS'e1d9fc'
p660
g43
sg194
g211
sS'c771fe'
p661
g176
sg308
g325
sg59
g67
ssS'entities_by_uuid'
p662
(dp663
g31
g43
sg485
g496
sg110
g116
sg49
g55
sg288
g302
sg240
g255
sg367
g369
sg310
g325
sg617
g620
sg61
g67
sg218
g233
sg459
g462
sg428
g431
sg264
g278
sg586
g589
sg150
g164
sg169
g176
sg127
g141
sg73
g79
sg524
g527
sg555
g558
sg196
g211
sg85
g91
sg182
g188
sg97
g103
sg397
g400
sg334
g348
ssS'pidfile'
p664
S'/home/jc593/Dev/cauv/code/pitzdir/pitz.pid'
p665
sS'jinja_template'
p666
S'bag.html'
p667
sb.