ccopy_reg
_reconstructor
p1
(cpitz.project
Project
p2
c__builtin__
object
p3
NtRp4
(dp5
S'uuid'
p6
g1
(cuuid
UUID
p7
g3
NtRp8
(dp9
S'int'
p10
L6915932614321907892402658296689213522L
sbsS'_html_filename'
p11
NsS'title'
p12
S'cauv'
p13
sS'_shell_mode'
p14
I00
sS'order_method'
p15
cpitz
by_milestone_status_pscore_created_time
p16
sS'loaded_from'
p17
S'pickle'
p18
sS'pathname'
p19
S'/home/jc593/Dev/cauv/code/pitzdir'
p20
sS'_elements'
p21
(lp22
g1
(cpitz.entity
Status
p23
c__builtin__
dict
p24
(dp25
S'pscore'
p26
I100
sS'frag'
p27
S'e1d9fc'
p28
sS'attached_files'
p29
(lp30
sg6
g1
(g7
g3
NtRp31
(dp32
g10
L300208156334241880201290222579226582105L
sbsg12
S'finished'
p33
sS'modified_time'
p34
cdatetime
datetime
p35
(S'\x07\xda\x0b\x04\x11.\x16\x0c\xa05'
tRp36
sS'created_time'
p37
g36
sS'type'
p38
S'status'
p39
sS'yaml_file_saved'
p40
g35
(S'\x07\xda\x0b\x04\x11. \x07\xfe"'
tRp41
sS'description'
p42
S''
stRp43
(dp44
g26
I100
sg27
g28
sg29
(lp45
sg6
g31
sg12
g33
sg34
g36
sg37
g36
sg38
g39
sg40
g41
sg42
S''
sbag1
(g23
g24
(dp46
g26
I50
sg27
S'742a44'
p47
sg29
(lp48
sg6
g1
(g7
g3
NtRp49
(dp50
g10
L154409908609622189382556686006061208230L
sbsg12
S'started'
p51
sg34
g35
(S'\x07\xda\x0b\x04\x11.\x16\x0c\xa5o'
tRp52
sg37
g52
sg38
S'status'
p53
sg40
g35
(S'\x07\xda\x0b\x04\x11. \x08\t\x8a'
tRp54
sg42
S''
stRp55
(dp56
g26
I50
sg27
g47
sg29
(lp57
sg6
g49
sg12
g51
sg34
g52
sg37
g52
sg38
g53
sg40
g54
sg42
S''
sbag1
(g23
g24
(dp58
g26
I40
sg27
S'25175b'
p59
sg29
(lp60
sg6
g1
(g7
g3
NtRp61
(dp62
g10
L49302717939597338662509329691997652165L
sbsg12
S'paused'
p63
sg34
g35
(S'\x07\xda\x0b\x04\x11.\x16\x0c\xa6\x96'
tRp64
sg37
g64
sg38
S'status'
p65
sg40
g35
(S'\x07\xda\x0b\x04\x11. \x08\x14 '
tRp66
sg42
S''
stRp67
(dp68
g26
I40
sg27
g59
sg29
(lp69
sg6
g61
sg12
g63
sg34
g64
sg37
g64
sg38
g65
sg40
g66
sg42
S''
sbag1
(g23
g24
(dp70
g26
I30
sg27
S'8b203f'
p71
sg29
(lp72
sg6
g1
(g7
g3
NtRp73
(dp74
g10
L184930133307461754624757499539547831947L
sbsg12
S'queued'
p75
sg34
g35
(S'\x07\xda\x0b\x04\x11.\x16\x0c\xa7\xad'
tRp76
sg37
g76
sg38
S'status'
p77
sg40
g35
(S'\x07\xda\x0b\x04\x11. \x08\x1e\x0f'
tRp78
sg42
S''
stRp79
(dp80
g26
I30
sg27
g71
sg29
(lp81
sg6
g73
sg12
g75
sg34
g76
sg37
g76
sg38
g77
sg40
g78
sg42
S''
sbag1
(g23
g24
(dp82
g26
I20
sg27
S'7f484b'
p83
sg29
(lp84
sg6
g1
(g7
g3
NtRp85
(dp86
g10
L169187340753552385114968941926541347595L
sbsg12
S'unstarted'
p87
sg34
g35
(S'\x07\xda\x0b\x04\x11.\x16\x0c\xa8\xc5'
tRp88
sg37
g88
sg38
S'status'
p89
sg40
g35
(S'\x07\xda\x0b\x04\x11. \x08(\x89'
tRp90
sg42
S''
stRp91
(dp92
g26
I20
sg27
g83
sg29
(lp93
sg6
g85
sg12
g87
sg34
g88
sg37
g88
sg38
g89
sg40
g90
sg42
S''
sbag1
(g23
g24
(dp94
g26
I10
sg27
S'2827cf'
p95
sg29
(lp96
sg6
g1
(g7
g3
NtRp97
(dp98
g10
L53375835843373154968152666848489005109L
sbsg12
S'abandoned'
p99
sg34
g35
(S'\x07\xda\x0b\x04\x11.\x16\x0c\xa9\xeb'
tRp100
sg37
g100
sg38
S'status'
p101
sg40
g35
(S'\x07\xda\x0b\x04\x11. \x082\xed'
tRp102
sg42
S''
stRp103
(dp104
g26
I10
sg27
g95
sg29
(lp105
sg6
g97
sg12
g99
sg34
g100
sg37
g100
sg38
g101
sg40
g102
sg42
S''
sbag1
(cpitz.entity.person
Person
p106
g24
(dp107
g26
I0
sg27
S'b1d6c1'
p108
sg29
(lp109
sg6
g1
(g7
g3
NtRp110
(dp111
g10
L236388421408798579890985238796729312670L
sbsg12
S'James Crosby'
p112
sg34
g35
(S'\x07\xda\x0b\x04\x11. \x07\xfc\xae'
tRp113
sg37
g113
sg38
S'person'
p114
sg40
g35
(S'\x07\xda\x0b\x04\x11. \x08<\xe9'
tRp115
sg42
S''
stRp116
(dp117
g26
I0
sg27
g108
sg29
(lp118
sg6
g110
sg12
g112
sg34
g113
sg37
g113
sg38
g114
sg40
g115
sg42
S''
sbag1
(cpitz.entity
Tag
p119
g24
(dp120
S'pscore'
p121
I0
sS'frag'
p122
S'946c0c'
p123
sS'attached_files'
p124
(lp125
sS'uuid'
p126
g1
(g7
g3
NtRp127
(dp128
S'int'
p129
L197286768475377705411888986497368205084L
sbsS'title'
p130
S'testing'
p131
sS'modified_time'
p132
g35
(S'\x07\xda\x0b\x04\x111*\x05\xb8\xcf'
tRp133
sS'created_time'
p134
g133
sS'type'
p135
S'tag'
p136
sS'yaml_file_saved'
p137
g35
(S'\x07\xda\x0b\x04\x111*\x05\xbb\xbd'
tRp138
sS'description'
p139
S'Things related to testing.'
p140
stRp141
(dp142
g121
I0
sg122
g123
sg124
(lp143
sg126
g127
sg130
g131
sg132
g133
sg134
g133
sg135
g136
sg137
g138
sg139
g140
sbag1
(cpitz.entity
Milestone
p144
g24
(dp145
S'pscore'
p146
I0
sS'frag'
p147
S'570ce0'
p148
sS'uuid'
p149
g1
(g7
g3
NtRp150
(dp151
S'int'
p152
L115709686465499050555006855212442791043L
sbsS'title'
p153
S'unscheduled'
p154
sS'modified_time'
p155
g35
(S'\x07\xda\x0b\x04\x1110\x04\xd9/'
tRp156
sS'created_time'
p157
g156
sS'reached'
p158
I00
sS'type'
p159
S'milestone'
p160
sS'yaml_file_saved'
p161
g35
(S'\x07\xda\x0b\x04\x112&\x00\x81\xec'
tRp162
sS'description'
p163
S''
stRp164
(dp165
g146
I0
sg147
g148
sg149
g150
sg153
g154
sg155
g156
sg157
g156
sg158
I00
sg159
g160
sg161
g162
sg163
S''
sbag1
(cpitz.entity
Estimate
p166
g24
(dp167
g146
I0
sg147
S'c771fe'
p168
sg149
g1
(g7
g3
NtRp169
(dp170
g152
L265108259705088528262102217610008550011L
sbsg153
S'not estimated'
p171
sg155
g35
(S'\x07\xda\x0b\x04\x1110\x04\xda\xb6'
tRp172
sS'points'
p173
I0
sg157
g172
sg159
S'estimate'
p174
sg161
g35
(S'\x07\xda\x0b\x04\x112&\x00\x8f\xa2'
tRp175
sg163
S''
stRp176
(dp177
g146
I0
sg147
g168
sg149
g169
sg153
g171
sg155
g172
sg173
I0
sg157
g172
sg159
g174
sg161
g175
sg163
S''
sbag1
(g106
g24
(dp178
g146
I0
sg147
S'3aaebe'
p179
sS'attached_files'
p180
(lp181
sg149
g1
(g7
g3
NtRp182
(dp183
g152
L78002556280449588393479432476918080669L
sbsg153
S'no owner'
p184
sg155
g35
(S'\x07\xda\x0b\x04\x1110\x04\xdc\x19'
tRp185
sg157
g185
sg159
S'person'
p186
sg161
g35
(S'\x07\xda\x0b\x04\x112&\x00\x9c\x11'
tRp187
sg163
S''
stRp188
(dp189
g146
I0
sg147
g179
sg180
(lp190
sg149
g182
sg153
g184
sg155
g185
sg157
g185
sg159
g186
sg161
g187
sg163
S''
sbag1
(g166
g24
(dp191
S'pscore'
p192
I0
sS'frag'
p193
S'd09b06'
p194
sS'uuid'
p195
g1
(g7
g3
NtRp196
(dp197
S'int'
p198
L277284367523703929526958133625188989255L
sbsS'title'
p199
S'trivial'
p200
sS'modified_time'
p201
g35
(S'\x07\xda\x0b\x04\x116+\ry.'
tRp202
sS'points'
p203
I1
sS'created_time'
p204
g202
sS'type'
p205
S'estimate'
p206
sS'yaml_file_saved'
p207
g35
(S'\x07\xda\x0b\x04\x116+\r|\x9c'
tRp208
sS'description'
p209
S'Simple task, should not take more than an hour.'
p210
stRp211
(dp212
g192
I0
sg193
g194
sg195
g196
sg199
g200
sg201
g202
sg203
I1
sg204
g202
sg205
g206
sg207
g208
sg209
g210
sbag1
(g166
g24
(dp213
S'pscore'
p214
I0
sS'frag'
p215
S'e06251'
p216
sS'uuid'
p217
g1
(g7
g3
NtRp218
(dp219
S'int'
p220
L298257563599997189979885110366072744596L
sbsS'title'
p221
S'small project'
p222
sS'modified_time'
p223
g35
(S'\x07\xda\x0b\x04\x12\x19"\x06\xeck'
tRp224
sS'points'
p225
I5
sS'created_time'
p226
g224
sS'type'
p227
S'estimate'
p228
sS'yaml_file_saved'
p229
g35
(S'\x07\xda\x0b\x04\x12\x19"\x06\xf0\x0f'
tRp230
sS'description'
p231
S'Small project, best dealt with by one person, probably taking several hours.'
p232
stRp233
(dp234
g214
I0
sg215
g216
sg217
g218
sg221
g222
sg223
g224
sg225
I5
sg226
g224
sg227
g228
sg229
g230
sg231
g232
sbag1
(g166
g24
(dp235
S'pscore'
p236
I0
sS'frag'
p237
S'af15d8'
p238
sS'uuid'
p239
g1
(g7
g3
NtRp240
(dp241
S'int'
p242
L232728329951956224362343003393279330573L
sbsS'title'
p243
S'significant project'
p244
sS'modified_time'
p245
g35
(S'\x07\xda\x0b\x04\x12\x1c\x0c\rM\xb7'
tRp246
sS'points'
p247
I25
sS'created_time'
p248
g246
sS'type'
p249
S'estimate'
p250
sS'yaml_file_saved'
p251
g35
(S'\x07\xda\x0b\x04\x12\x1c\x0c\rQw'
tRp252
sS'description'
p253
S'A significant amount of work, several days or more, probably suitable for\ncollaberation between more than one person, and requiring significant design\ndecisions.'
p254
stRp255
(dp256
g236
I0
sg237
g238
sg239
g240
sg243
g244
sg245
g246
sg247
I25
sg248
g246
sg249
g250
sg251
g252
sg253
g254
sbag1
(g119
g24
(dp257
S'pscore'
p258
I0
sS'frag'
p259
S'8da7e1'
p260
sS'attached_files'
p261
(lp262
sS'uuid'
p263
g1
(g7
g3
NtRp264
(dp265
S'int'
p266
L188292841895424093544817790897208843631L
sbsS'title'
p267
S'image processing'
p268
sS'modified_time'
p269
g35
(S'\x07\xda\x0b\x04\x12\x1d\x1c\t\xeb\x18'
tRp270
sS'created_time'
p271
g270
sS'type'
p272
S'tag'
p273
sS'yaml_file_saved'
p274
g35
(S'\x07\xda\x0b\x04\x12\x1d\x1c\t\xeey'
tRp275
sS'description'
p276
S'Related to image processing (including processing sonar images).'
p277
stRp278
(dp279
g258
I0
sg259
g260
sg261
(lp280
sg263
g264
sg267
g268
sg269
g270
sg271
g270
sg272
g273
sg274
g275
sg276
g277
sbag1
(g119
g24
(dp281
S'pscore'
p282
I0
sS'frag'
p283
S'cf2b7e'
p284
sS'attached_files'
p285
(lp286
sS'uuid'
p287
g1
(g7
g3
NtRp288
(dp289
S'int'
p290
L275376028904049931937057396630085839418L
sbsS'title'
p291
S'gui'
p292
sS'modified_time'
p293
g35
(S'\x07\xda\x0b\x04\x12\x1e\x07\x0c\xe0\xd8'
tRp294
sS'created_time'
p295
g294
sS'type'
p296
S'tag'
p297
sS'yaml_file_saved'
p298
g35
(S'\x07\xda\x0b\x04\x12\x1e\x07\x0c\xe4\x0b'
tRp299
sS'description'
p300
S'Relating to the various Graphical User Interfaces.'
p301
stRp302
(dp303
g282
I0
sg283
g284
sg285
(lp304
sg287
g288
sg291
g292
sg293
g294
sg295
g294
sg296
g297
sg298
g299
sg300
g301
sbag1
(g166
g24
(dp305
S'pscore'
p306
I0
sS'frag'
p307
S'a6887e'
p308
sS'uuid'
p309
g1
(g7
g3
NtRp310
(dp311
S'int'
p312
L221360562648380518769412743827279781563L
sbsS'title'
p313
S'highly non-trivial'
p314
sS'modified_time'
p315
g35
(S'\x07\xda\x0b\x04\x12 0\x0c\xd8\xee'
tRp316
sS'points'
p317
I100
sS'created_time'
p318
g316
sS'type'
p319
S'estimate'
p320
sS'yaml_file_saved'
p321
g35
(S'\x07\xda\x0b\x04\x12 0\x0c\xdc\xd4'
tRp322
sS'description'
p323
S"Really, really, really difficult, but that's why we do it :)"
p324
stRp325
(dp326
g306
I0
sg307
g308
sg309
g310
sg313
g314
sg315
g316
sg317
I100
sg318
g316
sg319
g320
sg321
g322
sg323
g324
sbag1
(g119
g24
(dp327
S'pscore'
p328
I0
sS'frag'
p329
S'f9c421'
p330
sS'attached_files'
p331
(lp332
sS'uuid'
p333
g1
(g7
g3
NtRp334
(dp335
S'int'
p336
L331996142187771955882707416418215780478L
sbsS'title'
p337
S'sonar'
p338
sS'modified_time'
p339
g35
(S'\x07\xda\x0b\x04\x126\x0b\x011o'
tRp340
sS'created_time'
p341
g340
sS'type'
p342
S'tag'
p343
sS'yaml_file_saved'
p344
g35
(S'\x07\xda\x0b\x04\x126\x0b\x015\xb9'
tRp345
sS'description'
p346
S'Things to do with sonar.'
p347
stRp348
(dp349
g328
I0
sg329
g330
sg331
(lp350
sg333
g334
sg337
g338
sg339
g340
sg341
g340
sg342
g343
sg344
g345
sg346
g347
sbag1
(g144
g24
(dp351
S'pscore'
p352
I0
sS'frag'
p353
S'fcd806'
p354
sS'uuid'
p355
g1
(g7
g3
NtRp356
(dp357
S'int'
p358
L336087129598010674063812125499293341845L
sbsS'title'
p359
S'Michaelmas Blitz 2010'
p360
sS'modified_time'
p361
g35
(S'\x07\xda\x0b\x04\x13\x15/\r\xa1\x03'
tRp362
sS'created_time'
p363
g362
sS'reached'
p364
I00
sS'type'
p365
S'milestone'
p366
sS'yaml_file_saved'
p367
g35
(S'\x07\xda\x0b\x04\x13\x15/\r\xaa\x12'
tRp368
sS'description'
p369
S'Things to do in Michaelmas blitz week, 2010.'
p370
stRp371
(dp372
g352
I0
sg353
g354
sg355
g356
sg359
g360
sg361
g362
sg363
g362
sg364
I00
sg365
g366
sg367
g368
sg369
g370
sbag1
(g119
g24
(dp373
S'pscore'
p374
I0
sS'frag'
p375
S'7450a1'
p376
sS'attached_files'
p377
(lp378
sS'uuid'
p379
g1
(g7
g3
NtRp380
(dp381
S'int'
p382
L154609098728873674441152855601256671864L
sbsS'title'
p383
S'ai'
p384
sS'modified_time'
p385
g35
(S'\x07\xda\x0b\x04\x135*\x03\x01\x93'
tRp386
sS'created_time'
p387
g386
sS'type'
p388
S'tag'
p389
sS'yaml_file_saved'
p390
g35
(S'\x07\xda\x0b\x04\x135*\x03\x05\xbf'
tRp391
sS'description'
p392
S'All things to do with high-level control and mission planning.'
p393
stRp394
(dp395
g374
I0
sg375
g376
sg377
(lp396
sg379
g380
sg383
g384
sg385
g386
sg387
g386
sg388
g389
sg390
g391
sg392
g393
sbag1
(g119
g24
(dp397
S'pscore'
p398
I0
sS'frag'
p399
S'dc1893'
p400
sS'attached_files'
p401
(lp402
sS'uuid'
p403
g1
(g7
g3
NtRp404
(dp405
S'int'
p406
L292557765731504791880568992605661195763L
sbsS'title'
p407
S'messaging'
p408
sS'modified_time'
p409
g35
(S'\x07\xda\x0b\x04\x136\x07\r+\x8b'
tRp410
sS'created_time'
p411
g410
sS'type'
p412
S'tag'
p413
sS'yaml_file_saved'
p414
g35
(S'\x07\xda\x0b\x04\x136\x07\r/]'
tRp415
sS'description'
p416
S'Things to do with the messaging system.'
p417
stRp418
(dp419
g398
I0
sg399
g400
sg401
(lp420
sg403
g404
sg407
g408
sg409
g410
sg411
g410
sg412
g413
sg414
g415
sg416
g417
sbag1
(g119
g24
(dp421
S'pscore'
p422
I0
sS'frag'
p423
S'f0ce25'
p424
sS'attached_files'
p425
(lp426
sS'uuid'
p427
g1
(g7
g3
NtRp428
(dp429
S'int'
p430
L320085086918514932043577864135319191374L
sbsS'title'
p431
S'logging'
p432
sS'modified_time'
p433
g35
(S'\x07\xda\x0b\x04\x136\x1f\x06:\xe9'
tRp434
sS'created_time'
p435
g434
sS'type'
p436
S'tag'
p437
sS'yaml_file_saved'
p438
g35
(S'\x07\xda\x0b\x04\x136\x1f\x06>\xe2'
tRp439
sS'description'
p440
S'Things to do with mission logging, and debug logging.'
p441
stRp442
(dp443
g422
I0
sg423
g424
sg425
(lp444
sg427
g428
sg431
g432
sg433
g434
sg435
g434
sg436
g437
sg438
g439
sg440
g441
sbag1
(cpitz.entity.task
Task
p445
g24
(dp446
S'status'
p447
g91
sg146
I0
sg163
S'Our testing is currently completely add hoc, and largely absent. We should use\nthe CMake ctest tool, or something else, to do proper regression tests.\nWhatever is chosen, it must be easy to add tests, and easy to see run the tests\nand see results.\n\nThis task concerns only the testing framework and not any actual tests.'
p448
sS'tags'
p449
(lp450
g141
asg153
S'Testing Framework'
p451
sg155
g35
(S'\x07\xda\x0b\x04\x112&\x00\x7f\xa8'
tRp452
sg157
g452
sg147
S'cbcbce'
p453
sS'components'
p454
(lp455
sS'milestone'
p456
g164
sS'owner'
p457
g188
sS'estimate'
p458
g176
sg159
S'task'
p459
sg161
g35
(S'\x07\xda\x0b\x04\x112&\x00\xa9e'
tRp460
sg149
g1
(g7
g3
NtRp461
(dp462
g152
L270891506143537094358496111725559148591L
sbstRp463
(dp464
g447
g85
sg146
I0
sg163
g448
sg449
(lp465
g127
asg153
g451
sg155
g452
sg157
g452
sg147
g453
sg454
(lp466
sg456
g150
sg457
g182
sg458
g169
sg159
g459
sg161
g460
sg149
g461
sbag1
(g445
g24
(dp467
S'status'
p468
g91
sS'pscore'
p469
I0
sS'description'
p470
S"For testing, a simulator will come in very useful. We will want to test both\nimage processing and control loops, and eventually the AI too, without actually\nhaving to put the damn thing in a swimming pool.\n\nThe control loops can be tested very simply with a random motion input, and the\nimage processing can be tested with recorded image data. However, this will not\nallow us to test any AI, as the image data will be predetermined.\n\nTherefore, this task would be to create a physics simulator, which can also\nrender images for the webcams. We wouldn't start from scratch: most likely, we\nshould use Microsoft Robotics, as we already have something for that."
p471
sS'title'
p472
S'Mission Simulation'
p473
sS'tags'
p474
(lp475
g141
asS'modified_time'
p476
g35
(S'\x07\xda\x0b\x04\x114\r\x08\xe9{'
tRp477
sS'owner'
p478
g188
sS'frag'
p479
S'86a468'
p480
sS'components'
p481
(lp482
sS'milestone'
p483
g164
sS'created_time'
p484
g477
sS'estimate'
p485
g176
sS'type'
p486
S'task'
p487
sS'yaml_file_saved'
p488
g35
(S'\x07\xda\x0b\x04\x114\r\x08\xec('
tRp489
sS'uuid'
p490
g1
(g7
g3
NtRp491
(dp492
S'int'
p493
L178970213515695655693349548138101560954L
sbstRp494
(dp495
g468
g85
sg469
I0
sg470
g471
sg472
g473
sg474
(lp496
g127
asg476
g477
sg478
g182
sg479
g480
sg481
(lp497
sg483
g150
sg484
g477
sg485
g169
sg486
g487
sg488
g489
sg490
g491
sbag1
(g445
g24
(dp498
S'status'
p499
g91
sS'pscore'
p500
I0
sS'description'
p501
S'This will form one or more nodes for the image processing pipeline: see\nauv/pipeline/nodes/, along with appropriate messages.\n\nRequirements:\n - Identify when there is an object present in the field of view of the camera.\n - Communicate the presence of the object, and its location in the field of view\n   using messages.\n\nThis is mostly a segmentation problem: with some intelligence to know when the\nsegmented area is significant.'
p502
sS'tags'
p503
(lp504
g278
asS'title'
p505
S'Object Detection'
p506
sS'modified_time'
p507
g35
(S'\x07\xda\x0b\x04\x12)\x02\x05\x86\xb2'
tRp508
sS'created_time'
p509
g508
sS'frag'
p510
S'bfc05d'
p511
sS'components'
p512
(lp513
sS'milestone'
p514
g164
sS'owner'
p515
g188
sS'estimate'
p516
g233
sS'type'
p517
S'task'
p518
sS'yaml_file_saved'
p519
g35
(S'\x07\xda\x0b\x04\x12)\x02\x05\x89#'
tRp520
sS'uuid'
p521
g1
(g7
g3
NtRp522
(dp523
S'int'
p524
L254881373925474473357905594776071308651L
sbstRp525
(dp526
g499
g85
sg500
I0
sg501
g502
sg503
(lp527
g264
asg505
g506
sg507
g508
sg509
g508
sg510
g511
sg512
(lp528
sg514
g150
sg515
g182
sg516
g218
sg517
g518
sg519
g520
sg521
g522
sbag1
(g445
g24
(dp529
S'status'
p530
g91
sS'pscore'
p531
I0
sS'description'
p532
S'This will form one or more nodes for the image processing pipeline (see\nauv/pipeline/nodes/), along with appropriate messages.\n\nRequirements:\n - Recognise known shapes in both camera and sonar images.\n - Match known 2D targets in any position/orientation.\n - Be easily trainable with new targets.\n\nObjects already segmented by object detection should probably be used as input.\nFor camera images, a relatively high update rate will be available, it may be\nuseful to use this time-sequence cdata to improve reliability.'
p533
sS'title'
p534
S'Object Recognition'
p535
sS'tags'
p536
(lp537
g278
asS'modified_time'
p538
g35
(S'\x07\xda\x0b\x04\x120\x17\x0f\x01\xc9'
tRp539
sS'owner'
p540
g188
sS'frag'
p541
S'6dd717'
p542
sS'components'
p543
(lp544
sS'milestone'
p545
g164
sS'created_time'
p546
g539
sS'estimate'
p547
g255
sS'type'
p548
S'task'
p549
sS'yaml_file_saved'
p550
g35
(S'\x07\xda\x0b\x04\x120\x17\x0f\x04\xb0'
tRp551
sS'uuid'
p552
g1
(g7
g3
NtRp553
(dp554
S'int'
p555
L146002665530123402521296466569761536809L
sbstRp556
(dp557
g530
g85
sg531
I0
sg532
g533
sg534
g535
sg536
(lp558
g264
asg538
g539
sg540
g182
sg541
g542
sg543
(lp559
sg545
g150
sg546
g539
sg547
g240
sg548
g549
sg550
g551
sg552
g553
sbag1
(g445
g24
(dp560
S'status'
p561
g91
sS'pscore'
p562
I0
sS'description'
p563
S'Given a 360-degree sonar sweep, it should be possible to locate the position of\nthe AUV relative to previous sonar images.\n\nThis should probably be implemented as an image processing pipeline node,\nprevious images could be cachd for short-term relative position information, or\nloaded from disk as reference images for absolute positioning.'
p564
sS'tags'
p565
(lp566
g278
asS'modified_time'
p567
g35
(S'\x07\xda\x0b\x04\x127\x01\x0bD<'
tRp568
sS'created_time'
p569
g35
(S'\x07\xda\x0b\x04\x1254\x06y\x13'
tRp570
sS'tag'
p571
S'sonar'
p572
sS'frag'
p573
S'bdd499'
p574
sS'milestone'
p575
g164
sS'owner'
p576
g188
sS'estimate'
p577
g255
sS'uuid'
p578
g1
(g7
g3
NtRp579
(dp580
S'int'
p581
L252327981180241802766199876826531987370L
sbsS'title'
p582
S'Sonar Localisation'
p583
sS'components'
p584
(lp585
sS'type'
p586
S'task'
p587
sS'yaml_file_saved'
p588
g35
(S'\x07\xda\x0b\x04\x127\x01\x0bE\xa9'
tRp589
stRp590
(dp591
g561
g85
sg562
I0
sg563
g564
sg565
(lp592
g264
asg567
g568
sg569
g570
sg571
g572
sg573
g574
sg575
g150
sg576
g182
sg577
g240
sg578
g579
sg582
g583
sg584
(lp593
sg586
g587
sg588
g589
sbag1
(g445
g24
(dp594
S'status'
p595
g91
sS'pscore'
p596
I0
sS'description'
p597
S'It is possible to point the sonar in one direction, and ping continuously,\nreturning a 1D line image.\n\nWe can use this to measure the distance to, for example, a wall, as we track\nalong it.\n\nTo do this we require:\n - a way of controlling the sonar mode from the message bus\n - Relatively simple 1D image processing to either compare successive images\n   and determine aggregate movement, or to find the most significant edge in\n   the image, and then send a message containing that information.\n\nThe former probably belongs in the sonar program, the latter as a node in the\nimage processing pipeline, or possibly as another standalone program.'
p598
sS'title'
p599
S'Sonar Distance Tracking'
p600
sS'tags'
p601
(lp602
g348
ag278
asS'modified_time'
p603
g35
(S'\x07\xda\x0b\x04\x13\x03:\x0c\xdei'
tRp604
sS'owner'
p605
g188
sS'frag'
p606
S'b4ca97'
p607
sS'components'
p608
(lp609
sS'milestone'
p610
g164
sS'created_time'
p611
g604
sS'estimate'
p612
g255
sS'type'
p613
S'task'
p614
sS'yaml_file_saved'
p615
g35
(S'\x07\xda\x0b\x04\x13\x03:\x0c\xe1\x1d'
tRp616
sS'uuid'
p617
g1
(g7
g3
NtRp618
(dp619
S'int'
p620
L240312955893610295106170836661836704790L
sbstRp621
(dp622
g595
g85
sg596
I0
sg597
g598
sg599
g600
sg601
(lp623
g334
ag264
asg603
g604
sg605
g182
sg606
g607
sg608
(lp624
sg610
g150
sg611
g604
sg612
g240
sg613
g614
sg615
g616
sg617
g618
sbag1
(g445
g24
(dp625
S'status'
p626
g91
sS'pscore'
p627
I0
sS'description'
p628
S'The sonar takes several seconds to acquire a full image, in which time the\nvehicle can move considerably, distorting the image.\n\nWhen composing sonar images, it should be possible to reduce the distortion by\ntaking account, in particular, of vehicle rotation. Movement compensation would\nalso be ideal.\n\nThis probably belongs in the library that is currently used to compose sonar\ndata into radial images.'
p629
sS'tags'
p630
(lp631
g348
asS'title'
p632
S'Sonar Movement Compensation'
p633
sS'modified_time'
p634
g35
(S'\x07\xda\x0b\x04\x13\x08%\x0c\xd9\r'
tRp635
sS'created_time'
p636
g635
sS'frag'
p637
S'3825c4'
p638
sS'components'
p639
(lp640
sS'milestone'
p641
g164
sS'owner'
p642
g188
sS'estimate'
p643
g255
sS'type'
p644
S'task'
p645
sS'yaml_file_saved'
p646
g35
(S'\x07\xda\x0b\x04\x13\x08%\x0c\xdb\x83'
tRp647
sS'uuid'
p648
g1
(g7
g3
NtRp649
(dp650
S'int'
p651
L74632870439063453352218554463672053920L
sbstRp652
(dp653
g626
g85
sg627
I0
sg628
g629
sg630
(lp654
g334
asg632
g633
sg634
g635
sg636
g635
sg637
g638
sg639
(lp655
sg641
g150
sg642
g182
sg643
g240
sg644
g645
sg646
g647
sg648
g649
sbag1
(g445
g24
(dp656
S'status'
p657
g91
sS'pscore'
p658
I0
sS'description'
p659
S'This is more of a pipe-dream than an immediate goal, but nevertheless, it would\nbe awesome if we could do something like this:\n\nhttp://mi.eng.cam.ac.uk/~qp202/my_papers/BMVC09/\n\nAnd then use the resulting 3D meshes for object recognition / navigation.\n\nThe environment reconstuction case amounts to SLAM, but I think the most useful\napplication would be in object recognition.'
p660
sS'title'
p661
S'Object/Environment Reconstruction'
p662
sS'tags'
p663
(lp664
g278
asS'modified_time'
p665
g35
(S'\x07\xda\x0b\x04\x13\x0e4\r\x02\x8d'
tRp666
sS'owner'
p667
g188
sS'frag'
p668
S'7f6821'
p669
sS'components'
p670
(lp671
sS'milestone'
p672
g164
sS'created_time'
p673
g666
sS'estimate'
p674
g325
sS'type'
p675
S'task'
p676
sS'yaml_file_saved'
p677
g35
(S'\x07\xda\x0b\x04\x13\x0e4\r\x05\r'
tRp678
sS'uuid'
p679
g1
(g7
g3
NtRp680
(dp681
S'int'
p682
L169352632321095334468253388073032596086L
sbstRp683
(dp684
g657
g85
sg658
I0
sg659
g660
sg661
g662
sg663
(lp685
g264
asg665
g666
sg667
g182
sg668
g669
sg670
(lp686
sg672
g150
sg673
g666
sg674
g310
sg675
g676
sg677
g678
sg679
g680
sbag1
(g445
g24
(dp687
S'status'
p688
g91
sS'pscore'
p689
I0
sS'description'
p690
S'Yes please :)\n\nThere are probably two separate fields in which we can use SLAM: 2D from sonar\ndata, and 3D using camera images in more highly-featured environments.\n\nSLAM would actually probably not be very useful in the competition, but in the\nlong term if we ever want to send an AUV somewhere actually unknown, then it is\nessential.'
p691
sS'tags'
p692
(lp693
g348
ag278
asS'title'
p694
S'Simultaneous Location and Mapping'
p695
sS'modified_time'
p696
g35
(S'\x07\xda\x0b\x04\x13\x120\nF6'
tRp697
sS'created_time'
p698
g697
sS'frag'
p699
S'389a84'
p700
sS'components'
p701
(lp702
sS'milestone'
p703
g164
sS'owner'
p704
g188
sS'estimate'
p705
g325
sS'type'
p706
S'task'
p707
sS'yaml_file_saved'
p708
g35
(S'\x07\xda\x0b\x04\x13\x120\nH\xf2'
tRp709
sS'uuid'
p710
g1
(g7
g3
NtRp711
(dp712
S'int'
p713
L75239067287087234329855077271042790165L
sbstRp714
(dp715
g688
g85
sg689
I0
sg690
g691
sg692
(lp716
g334
ag264
asg694
g695
sg696
g697
sg698
g697
sg699
g700
sg701
(lp717
sg703
g150
sg704
g182
sg705
g310
sg706
g707
sg708
g709
sg710
g711
sbag1
(g445
g24
(dp718
S'status'
p719
g91
sS'pscore'
p720
I0
sS'description'
p721
S"Use CUDA for image processing operations, where appropriate.\nThis will probably require some modifications to the pipeline itself. It may be\nthat we want images to sometimes be 'resident' in graphics memory -- in which\ncase the Image class with either have to be CUDA aware, or the pipeline will\nhave to be aware of where an image is when passing it between nodes of\ndifferent sorts.\n\nI don't really know much about this..."
p722
sS'title'
p723
S'CUDA'
p724
sS'tags'
p725
(lp726
g278
asS'modified_time'
p727
g35
(S'\x07\xda\x0b\x05\n\x0c\x18\x0f\x00V'
tRp728
sS'owner'
p729
g188
sS'frag'
p730
S'8805a3'
p731
sS'components'
p732
(lp733
sS'milestone'
p734
g164
sS'created_time'
p735
g728
sS'estimate'
p736
g255
sS'type'
p737
S'task'
p738
sS'yaml_file_saved'
p739
g35
(S'\x07\xda\x0b\x05\n\x0c\x18\x0f\x03\x02'
tRp740
sS'uuid'
p741
g1
(g7
g3
NtRp742
(dp743
S'int'
p744
L180804280475373984911378119647104303741L
sbstRp745
(dp746
g719
g85
sg720
I0
sg721
g722
sg723
g724
sg725
(lp747
g264
asg727
g728
sg729
g182
sg730
g731
sg732
(lp748
sg734
g150
sg735
g728
sg736
g240
sg737
g738
sg739
g740
sg741
g742
sbag1
(g445
g24
(dp749
S'status'
p750
g91
sS'pscore'
p751
I0
sS'description'
p752
S"Because Strong AI must be possible with 1GHz\xe2\x80\xa6 Though in all seriousness, we\nneed something that can at least cope with unforeseen situations in a way that\nmeans we don't loose the vehicle. This is very non-trivial."
p753
sS'tags'
p754
(lp755
g394
asS'title'
p756
S"Actual 'AI' Implementation"
p757
sS'modified_time'
p758
g35
(S'\x07\xda\x0b\x05\n\x0f\x1e\x0c\xdb\xae'
tRp759
sS'created_time'
p760
g759
sS'frag'
p761
S'9f0d09'
p762
sS'components'
p763
(lp764
sS'milestone'
p765
g164
sS'owner'
p766
g188
sS'estimate'
p767
g325
sS'type'
p768
S'task'
p769
sS'yaml_file_saved'
p770
g35
(S'\x07\xda\x0b\x05\n\x0f\x1e\x0c\xde\xa4'
tRp771
sS'uuid'
p772
g1
(g7
g3
NtRp773
(dp774
S'int'
p775
L211414945648581029574801206858663473088L
sbstRp776
(dp777
g750
g85
sg751
I0
sg752
g753
sg754
(lp778
g380
asg756
g757
sg758
g759
sg760
g759
sg761
g762
sg763
(lp779
sg765
g150
sg766
g182
sg767
g310
sg768
g769
sg770
g771
sg772
g773
sbag1
(g445
g24
(dp780
S'status'
p781
g91
sS'pscore'
p782
I0
sS'description'
p783
S"We need a high-throughput, low-latency message bus (to replace Spread which is\ntoo slow) it must:  \n - not copy data that need not be copied (ie messages between programs on the\n   same host should not involve data being copied)\n - not serialise / deserialise data between programs with the same data\n   representations on the same host (ie, use shared memory)\n - provide at least the following data types to be used with any Plain Old Data\n   Structs:\n    - vector\n    - map\n - prove a simple interface; preferably native c++\n - be easy to setup across a local network (preferably with no configuration\n   required and some sort of automatic discovery)\n - enable large message sequences to be replayed either centrally\n   or by a client program in a way that is indistinguishable to other\n   clients and preferably rovides intelligent verification of messages\n   against those expected.\n - be completely unaware of data types: we don't want to have to\n   recompile it if the message specification changes.\n   This is highly non-trivial and considerable thought and actual\n   ''design'' will be necessary to get it right."
p784
sS'tags'
p785
(lp786
g418
asS'title'
p787
S'Spread Replacement'
p788
sS'modified_time'
p789
g35
(S'\x07\xda\x0b\x05\n\x146\x0e\xd68'
tRp790
sS'created_time'
p791
g790
sS'frag'
p792
S'0b051d'
p793
sS'components'
p794
(lp795
sS'milestone'
p796
g164
sS'owner'
p797
g188
sS'estimate'
p798
g325
sS'type'
p799
S'task'
p800
sS'yaml_file_saved'
p801
g35
(S'\x07\xda\x0b\x05\n\x146\x0e\xd9\x94'
tRp802
sS'uuid'
p803
g1
(g7
g3
NtRp804
(dp805
S'int'
p806
L14648076433314010567804812502658339991L
sbstRp807
(dp808
g781
g85
sg782
I0
sg783
g784
sg785
(lp809
g404
asg787
g788
sg789
g790
sg791
g790
sg792
g793
sg794
(lp810
sg796
g150
sg797
g182
sg798
g310
sg799
g800
sg801
g802
sg803
g804
sbag1
(g445
g24
(dp811
S'status'
p812
g91
sS'pscore'
p813
I0
sS'description'
p814
S'Tests for the scripting interface:\n - Check that messages are sent correctly.\n - Test concurrency (GIL locking is a pain...)\n - Cover all functions exposed'
p815
sS'tags'
p816
(lp817
g141
asS'title'
p818
S'Scripting interface tests'
p819
sS'modified_time'
p820
g35
(S'\x07\xda\x0b\x05\n\x18\x18\x0e\xb5Z'
tRp821
sS'created_time'
p822
g821
sS'frag'
p823
S'5eba69'
p824
sS'components'
p825
(lp826
sS'milestone'
p827
g164
sS'owner'
p828
g188
sS'estimate'
p829
g255
sS'type'
p830
S'task'
p831
sS'yaml_file_saved'
p832
g35
(S'\x07\xda\x0b\x05\n\x18\x18\x0e\xb8\xad'
tRp833
sS'uuid'
p834
g1
(g7
g3
NtRp835
(dp836
S'int'
p837
L125915331745495019372036525200300736084L
sbstRp838
(dp839
g812
g85
sg813
I0
sg814
g815
sg816
(lp840
g127
asg818
g819
sg820
g821
sg822
g821
sg823
g824
sg825
(lp841
sg827
g150
sg828
g182
sg829
g240
sg830
g831
sg832
g833
sg834
g835
sbag1
(g445
g24
(dp842
S'status'
p843
g91
sS'pscore'
p844
I0
sS'description'
p845
S"It may be necessary to port the java gui to c++\xe2\x80\xa6 whilst a lot of work this\nisn't necessarily very difficult."
p846
sS'title'
p847
S'Integrate the Pipeline Widget in the GUI'
p848
sS'tags'
p849
(lp850
g302
asS'modified_time'
p851
g35
(S'\x07\xda\x0b\x05\n\x18:\x0e\xd5y'
tRp852
sS'owner'
p853
g188
sS'frag'
p854
S'885483'
p855
sS'components'
p856
(lp857
sS'milestone'
p858
g164
sS'created_time'
p859
g852
sS'estimate'
p860
g255
sS'type'
p861
S'task'
p862
sS'yaml_file_saved'
p863
g35
(S'\x07\xda\x0b\x05\n\x18:\x0e\xd8\xea'
tRp864
sS'uuid'
p865
g1
(g7
g3
NtRp866
(dp867
S'int'
p868
L181213822512908501735795060686691902425L
sbstRp869
(dp870
g843
g85
sg844
I0
sg845
g846
sg847
g848
sg849
(lp871
g288
asg851
g852
sg853
g182
sg854
g855
sg856
(lp872
sg858
g150
sg859
g852
sg860
g240
sg861
g862
sg863
g864
sg865
g866
sbag1
(g445
g24
(dp873
S'status'
p874
g91
sS'pscore'
p875
I0
sS'description'
p876
S"The current design consists of a set of python scripts, one of which arbitrates\ndemands from 'objective' scripts, which send requests for movements, based on\nmessages that they are receiving.\nArbitration should probably be at a higher level than this, since the current\ndesign could easily get stuck oscillating between two objectives."
p877
sS'tags'
p878
(lp879
g394
asS'title'
p880
S'High-Level Control Design'
p881
sS'modified_time'
p882
g35
(S'\x07\xda\x0b\x05\n\r\x04\x0e\xdag'
tRp883
sS'created_time'
p884
g883
sS'frag'
p885
S'895b06'
p886
sS'components'
p887
(lp888
sS'milestone'
p889
g371
sS'owner'
p890
g188
sS'estimate'
p891
g233
sS'type'
p892
S'task'
p893
sS'yaml_file_saved'
p894
g35
(S'\x07\xda\x0b\x05\n\r\x04\x0e\xddA'
tRp895
sS'uuid'
p896
g1
(g7
g3
NtRp897
(dp898
S'int'
p899
L182576859826624242511530137314028538036L
sbstRp900
(dp901
g874
g85
sg875
I0
sg876
g877
sg878
(lp902
g380
asg880
g881
sg882
g883
sg884
g883
sg885
g886
sg887
(lp903
sg889
g356
sg890
g182
sg891
g218
sg892
g893
sg894
g895
sg896
g897
sbag1
(g445
g24
(dp904
S'status'
p905
g91
sS'pscore'
p906
I0
sS'description'
p907
S"A robust pipe-following 'objective' script, (or whatever fits into the new\ncontrol design). One exists, but it was hacked together very quickly, and it\ndidn't work."
p908
sS'title'
p909
S'Robust Script to Follow a Pipe'
p910
sS'tags'
p911
(lp912
g394
asS'modified_time'
p913
g35
(S'\x07\xda\x0b\x05\n\r,\x0e\xfcS'
tRp914
sS'owner'
p915
g188
sS'frag'
p916
S'6fc282'
p917
sS'components'
p918
(lp919
sS'milestone'
p920
g371
sS'created_time'
p921
g914
sS'estimate'
p922
g233
sS'type'
p923
S'task'
p924
sS'yaml_file_saved'
p925
g35
(S'\x07\xda\x0b\x05\n\r,\x0e\xff)'
tRp926
sS'uuid'
p927
g1
(g7
g3
NtRp928
(dp929
S'int'
p930
L148554261718688181447502465540629721167L
sbstRp931
(dp932
g905
g85
sg906
I0
sg907
g908
sg909
g910
sg911
(lp933
g380
asg913
g914
sg915
g182
sg916
g917
sg918
(lp934
sg920
g356
sg921
g914
sg922
g218
sg923
g924
sg925
g926
sg927
g928
sbag1
(g445
g24
(dp935
S'status'
p936
g91
sS'pscore'
p937
I0
sS'description'
p938
S"A robust 'objective' script (or whatever fits into the new control design) to\ntrack an object such as a moving buoy."
p939
sS'tags'
p940
(lp941
g394
asS'title'
p942
S'Robust Script to Track an Object'
p943
sS'modified_time'
p944
g35
(S'\x07\xda\x0b\x05\n\x0e\x15\x01\x93\x9d'
tRp945
sS'created_time'
p946
g945
sS'frag'
p947
S'a291a6'
p948
sS'components'
p949
(lp950
sS'milestone'
p951
g371
sS'owner'
p952
g188
sS'estimate'
p953
g233
sS'type'
p954
S'task'
p955
sS'yaml_file_saved'
p956
g35
(S'\x07\xda\x0b\x05\n\x0e\x15\x01\x96\x93'
tRp957
sS'uuid'
p958
g1
(g7
g3
NtRp959
(dp960
S'int'
p961
L216091191503341103866945999127967304341L
sbstRp962
(dp963
g936
g85
sg937
I0
sg938
g939
sg940
(lp964
g380
asg942
g943
sg944
g945
sg946
g945
sg947
g948
sg949
(lp965
sg951
g356
sg952
g182
sg953
g218
sg954
g955
sg956
g957
sg958
g959
sbag1
(g445
g24
(dp966
S'status'
p967
g91
sS'pscore'
p968
I0
sS'description'
p969
S'Names are important. We need a name for the high-level control system. It\nshould either be a really good acronym, or an invented/appropriated word or two\nwith the right connotations.'
p970
sS'title'
p971
S"Name for the 'AI' Component"
p972
sS'tags'
p973
(lp974
g394
asS'modified_time'
p975
g35
(S'\x07\xda\x0b\x05\n\x0e;\rQ\x99'
tRp976
sS'owner'
p977
g188
sS'frag'
p978
S'a920d5'
p979
sS'components'
p980
(lp981
sS'milestone'
p982
g371
sS'created_time'
p983
g976
sS'estimate'
p984
g176
sS'type'
p985
S'task'
p986
sS'yaml_file_saved'
p987
g35
(S'\x07\xda\x0b\x05\n\x0e;\rTp'
tRp988
sS'uuid'
p989
g1
(g7
g3
NtRp990
(dp991
S'int'
p992
L224810015053565018235550575287590971981L
sbstRp993
(dp994
g967
g85
sg968
I0
sg969
g970
sg971
g972
sg973
(lp995
g380
asg975
g976
sg977
g182
sg978
g979
sg980
(lp996
sg982
g356
sg983
g976
sg984
g169
sg985
g986
sg987
g988
sg989
g990
sbag1
(g445
g24
(dp997
S'status'
p998
g91
sS'pscore'
p999
I0
sS'description'
p1000
S"For serialisation / de-serialisation we should probably use our own\nboost::archive type that takes care of things like 64/32-bit issues. See also\n'Replace Spread'. A more efficient messaging base layer may(will) need to be\naware of serialisation."
p1001
sS'title'
p1002
S'Implement a Boost Archive for Serialisation'
p1003
sS'tags'
p1004
(lp1005
g418
asS'modified_time'
p1006
g35
(S'\x07\xda\x0b\x05\n\x10(\r\xef\x8f'
tRp1007
sS'owner'
p1008
g188
sS'frag'
p1009
S'728e0b'
p1010
sS'components'
p1011
(lp1012
sS'milestone'
p1013
g371
sS'created_time'
p1014
g1007
sS'estimate'
p1015
g255
sS'type'
p1016
S'task'
p1017
sS'yaml_file_saved'
p1018
g35
(S'\x07\xda\x0b\x05\n\x10(\r\xf2e'
tRp1019
sS'uuid'
p1020
g1
(g7
g3
NtRp1021
(dp1022
S'int'
p1023
L152269525812862065198261561734123737574L
sbstRp1024
(dp1025
g998
g85
sg999
I0
sg1000
g1001
sg1002
g1003
sg1004
(lp1026
g404
asg1006
g1007
sg1008
g182
sg1009
g1010
sg1011
(lp1027
sg1013
g356
sg1014
g1007
sg1015
g240
sg1016
g1017
sg1018
g1019
sg1020
g1021
sbag1
(g445
g24
(dp1028
S'status'
p1029
g91
sS'pscore'
p1030
I0
sS'description'
p1031
S'Pipeline manipulation MUST be absolutely robust, all possible operations should\nbe tested, lots, with and without the pipeline running, and with various\nset-ups.\nWe also need tests that are reasonably good at exposing concurrency issues --\nthis probably means artificially reducing the resources of one of more\nprocesses in a varying way as tests are repeated.'
p1032
sS'title'
p1033
S'Tests for img-pipeline'
p1034
sS'tags'
p1035
(lp1036
g278
ag141
asS'modified_time'
p1037
g35
(S'\x07\xda\x0b\x05\n\x15\x1e\r.\xd4'
tRp1038
sS'owner'
p1039
g188
sS'frag'
p1040
S'3136d8'
p1041
sS'components'
p1042
(lp1043
sS'milestone'
p1044
g371
sS'created_time'
p1045
g1038
sS'estimate'
p1046
g255
sS'type'
p1047
S'task'
p1048
sS'yaml_file_saved'
p1049
g35
(S'\x07\xda\x0b\x05\n\x15\x1e\r1\xe2'
tRp1050
sS'uuid'
p1051
g1
(g7
g3
NtRp1052
(dp1053
S'int'
p1054
L65416953910297741178200899262157697049L
sbstRp1055
(dp1056
g1029
g85
sg1030
I0
sg1031
g1032
sg1033
g1034
sg1035
(lp1057
g264
ag127
asg1037
g1038
sg1039
g182
sg1040
g1041
sg1042
(lp1058
sg1044
g356
sg1045
g1038
sg1046
g240
sg1047
g1048
sg1049
g1050
sg1051
g1052
sbag1
(g445
g24
(dp1059
S'status'
p1060
g91
sS'pscore'
p1061
I0
sS'description'
p1062
S'control is a critical component, it really needs thorough tests.'
p1063
sS'tags'
p1064
(lp1065
g141
asS'title'
p1066
S'Tests for control'
p1067
sS'modified_time'
p1068
g35
(S'\x07\xda\x0b\x05\n\x16\x04\x0e\xfcW'
tRp1069
sS'created_time'
p1070
g1069
sS'frag'
p1071
S'ef3b17'
p1072
sS'components'
p1073
(lp1074
sS'milestone'
p1075
g371
sS'owner'
p1076
g188
sS'estimate'
p1077
g233
sS'type'
p1078
S'task'
p1079
sS'yaml_file_saved'
p1080
g35
(S'\x07\xda\x0b\x05\n\x16\x04\x0e\xff}'
tRp1081
sS'uuid'
p1082
g1
(g7
g3
NtRp1083
(dp1084
S'int'
p1085
L317992308434898030167039405867671969927L
sbstRp1086
(dp1087
g1060
g85
sg1061
I0
sg1062
g1063
sg1064
(lp1088
g127
asg1066
g1067
sg1068
g1069
sg1070
g1069
sg1071
g1072
sg1073
(lp1089
sg1075
g356
sg1076
g182
sg1077
g218
sg1078
g1079
sg1080
g1081
sg1082
g1083
sbag1
(g445
g24
(dp1090
S'status'
p1091
g91
sS'pscore'
p1092
I0
sS'description'
p1093
S'Regression tests for serialisation/de-serialisation are needed. We should also\ntest interoperability between 64 and 32 bit systems for all message types.\nThese tests will be particularly important when we improve the underlying\nmessaging system, as theoretically the interface should not change.'
p1094
sS'title'
p1095
S'Messaging tests'
p1096
sS'tags'
p1097
(lp1098
g418
ag141
asS'modified_time'
p1099
g35
(S'\x07\xda\x0b\x05\n\x16\x1b\x0e\xfc\xc8'
tRp1100
sS'owner'
p1101
g188
sS'frag'
p1102
S'cbe5f5'
p1103
sS'components'
p1104
(lp1105
sS'milestone'
p1106
g371
sS'created_time'
p1107
g1100
sS'estimate'
p1108
g255
sS'type'
p1109
S'task'
p1110
sS'yaml_file_saved'
p1111
g35
(S'\x07\xda\x0b\x05\n\x16\x1b\x0e\xff\xc8'
tRp1112
sS'uuid'
p1113
g1
(g7
g3
NtRp1114
(dp1115
S'int'
p1116
L271027296121988482910082829207046073151L
sbstRp1117
(dp1118
g1091
g85
sg1092
I0
sg1093
g1094
sg1095
g1096
sg1097
(lp1119
g404
ag127
asg1099
g1100
sg1101
g182
sg1102
g1103
sg1104
(lp1120
sg1106
g356
sg1107
g1100
sg1108
g240
sg1109
g1110
sg1111
g1112
sg1113
g1114
sbag1
(g445
g24
(dp1121
S'status'
p1122
g91
sS'pscore'
p1123
I0
sS'description'
p1124
S"It's really irritating to have to type long filenames into the gui because\npaste isn't supported. It should be.\nCopy/Paste of groups of nodes (maybe even in a cross-application or persistent\nway(!)) would also be useful."
p1125
sS'tags'
p1126
(lp1127
g302
asS'title'
p1128
S'Support Copy/Paste'
p1129
sS'modified_time'
p1130
g35
(S'\x07\xda\x0b\x05\n\x193\x05c\xac'
tRp1131
sS'created_time'
p1132
g1131
sS'frag'
p1133
S'0a6529'
p1134
sS'components'
p1135
(lp1136
sS'milestone'
p1137
g371
sS'owner'
p1138
g188
sS'estimate'
p1139
g233
sS'type'
p1140
S'task'
p1141
sS'yaml_file_saved'
p1142
g35
(S'\x07\xda\x0b\x05\n\x193\x05f\xa7'
tRp1143
sS'uuid'
p1144
g1
(g7
g3
NtRp1145
(dp1146
S'int'
p1147
L13817543869687276051022020268325500779L
sbstRp1148
(dp1149
g1122
g85
sg1123
I0
sg1124
g1125
sg1126
(lp1150
g288
asg1128
g1129
sg1130
g1131
sg1132
g1131
sg1133
g1134
sg1135
(lp1151
sg1137
g356
sg1138
g182
sg1139
g218
sg1140
g1141
sg1142
g1143
sg1144
g1145
sbag1
(g445
g24
(dp1152
S'status'
p1153
g91
sS'pscore'
p1154
I0
sS'description'
p1155
S'Lots of parameters support only a finite set of values. This is not represented\nin the GUI, it should be. Sliders may also be appropriate for some values.'
p1156
sS'title'
p1157
S'Better Parameter Widgets for GUI'
p1158
sS'tags'
p1159
(lp1160
g302
asS'modified_time'
p1161
g35
(S'\x07\xda\x0b\x05\n\x1a2\x03\x8f\x7f'
tRp1162
sS'owner'
p1163
g188
sS'frag'
p1164
S'8f7575'
p1165
sS'components'
p1166
(lp1167
sS'milestone'
p1168
g371
sS'created_time'
p1169
g1162
sS'estimate'
p1170
g233
sS'type'
p1171
S'task'
p1172
sS'yaml_file_saved'
p1173
g35
(S'\x07\xda\x0b\x05\n\x1a2\x03\x92\xdd'
tRp1174
sS'uuid'
p1175
g1
(g7
g3
NtRp1176
(dp1177
S'int'
p1178
L190689487526671798994527796900256549054L
sbstRp1179
(dp1180
g1153
g85
sg1154
I0
sg1155
g1156
sg1157
g1158
sg1159
(lp1181
g288
asg1161
g1162
sg1163
g182
sg1164
g1165
sg1166
(lp1182
sg1168
g356
sg1169
g1162
sg1170
g218
sg1171
g1172
sg1173
g1174
sg1175
g1176
sbag1
(g445
g24
(dp1183
S'status'
p1184
g91
sS'pscore'
p1185
I0
sS'description'
p1186
S'Verify that it works, and make sure it is completely reliable at restarting\ndead processes. It would be great if it could also detect deadlocks.'
p1187
sS'tags'
p1188
(lp1189
sS'title'
p1190
S'Watchdog process (pervert)'
p1191
sS'modified_time'
p1192
g35
(S'\x07\xda\x0b\x05\n\x1b$\x01n\xce'
tRp1193
sS'created_time'
p1194
g1193
sS'frag'
p1195
S'3e6a87'
p1196
sS'components'
p1197
(lp1198
sS'milestone'
p1199
g371
sS'owner'
p1200
g188
sS'estimate'
p1201
g233
sS'type'
p1202
S'task'
p1203
sS'yaml_file_saved'
p1204
g35
(S'\x07\xda\x0b\x05\n\x1b$\x01r\x19'
tRp1205
sS'uuid'
p1206
g1
(g7
g3
NtRp1207
(dp1208
S'int'
p1209
L82965263845022505181538746628602760494L
sbstRp1210
(dp1211
g1184
g85
sg1185
I0
sg1186
g1187
sg1188
(lp1212
sg1190
g1191
sg1192
g1193
sg1194
g1193
sg1195
g1196
sg1197
(lp1213
sg1199
g356
sg1200
g182
sg1201
g218
sg1202
g1203
sg1204
g1205
sg1206
g1207
sbag1
(g445
g24
(dp1214
S'status'
p1215
g91
sS'pscore'
p1216
I0
sS'description'
p1217
S'Log messages should be dumped to file as quickly as possible, thread safety is\nalso important. A separate log viewer (probably command line only) will be\nneeded to parse, filter, and pretty-print the log messages.'
p1218
sS'title'
p1219
S'Logging Improvements'
p1220
sS'tags'
p1221
(lp1222
g442
asS'modified_time'
p1223
g35
(S'\x07\xda\x0b\x05\n\x1c\x04\x0e\xb0o'
tRp1224
sS'owner'
p1225
g188
sS'frag'
p1226
S'd3dce3'
p1227
sS'components'
p1228
(lp1229
sS'milestone'
p1230
g371
sS'created_time'
p1231
g1224
sS'estimate'
p1232
g255
sS'type'
p1233
S'task'
p1234
sS'yaml_file_saved'
p1235
g35
(S'\x07\xda\x0b\x05\n\x1c\x04\x0e\xb3\xaf'
tRp1236
sS'uuid'
p1237
g1
(g7
g3
NtRp1238
(dp1239
S'int'
p1240
L281614032507339405782054876908174064965L
sbstRp1241
(dp1242
g1215
g85
sg1216
I0
sg1217
g1218
sg1219
g1220
sg1221
(lp1243
g428
asg1223
g1224
sg1225
g182
sg1226
g1227
sg1228
(lp1244
sg1230
g356
sg1231
g1224
sg1232
g240
sg1233
g1234
sg1235
g1236
sg1237
g1238
sbasS'rerun_sort_after_append'
p1245
I01
sS'entities_by_yaml_filename'
p1246
(dp1247
S'task-3136d8d7-a7d9-43ba-bd91-5c0106343019.yaml'
p1248
g1055
sS'task-ef3b1744-907a-42ff-8d3c-c804e3a36087.yaml'
p1249
g1086
sS'tag-dc18937e-7863-4d68-9062-897794626df3.yaml'
p1250
g418
sS'task-cbe5f562-88c9-415e-b7f9-7a9ec9ba2b3f.yaml'
p1251
g1117
sS'status-742a4444-7e7c-4def-a18a-a1d8540d92a6.yaml'
p1252
g55
sS'tag-cf2b7e76-ffa8-46e6-be99-4324b1762a3a.yaml'
p1253
g302
sS'task-bdd499fa-57cd-40e2-92c3-d5116bbd7faa.yaml'
p1254
g590
sS'task-3e6a8752-380d-46a4-9a65-6c7d2f228d2e.yaml'
p1255
g1210
sS'estimate-d09b06d2-b1b4-451d-96b2-e4d851d73947.yaml'
p1256
g211
sS'person-b1d6c101-8a7d-4024-840a-86828583e59e.yaml'
p1257
g116
sS'estimate-e0625139-c4a3-4924-b513-771a59542a94.yaml'
p1258
g233
sS'task-bfc05df5-bdbf-4556-98a9-be6f0042056b.yaml'
p1259
g525
sS'task-895b062e-a4d3-4fa3-9789-e75d60b5c8b4.yaml'
p1260
g900
sS'milestone-fcd806d4-9ae7-4466-978f-e0ff87469895.yaml'
p1261
g371
sS'status-e1d9fcdf-5e75-4b2f-a76b-73ebe11d1c59.yaml'
p1262
g43
sS'tag-8da7e1db-44a7-4b53-b9cb-bb588d4e5d6f.yaml'
p1263
g278
sS'task-0a652982-a3ba-40df-8e2c-7d79f3d2776b.yaml'
p1264
g1148
sS'task-cbcbce6c-0c97-45f9-af4b-390d0873f02f.yaml'
p1265
g463
sS'estimate-a6887e5d-4bea-416e-9f74-3a63ff631ebb.yaml'
p1266
g325
sS'status-25175bab-424d-45e9-948c-dafb7dec44c5.yaml'
p1267
g67
sS'task-3825c49b-bda7-4244-8ee9-c89b84dfb0a0.yaml'
p1268
g652
sS'tag-946c0cac-4826-47b7-afeb-c70ac6ec271c.yaml'
p1269
g141
sS'task-86a468ca-43f3-48fe-8a8d-de58c785567a.yaml'
p1270
g494
sS'task-6dd7172e-50fe-4b90-ab8b-5e166f2e3b29.yaml'
p1271
g556
sS'task-88548341-0eb7-4a91-a231-b9f8406223d9.yaml'
p1272
g869
sS'task-a920d57f-a57f-48d3-997d-f9910403ea4d.yaml'
p1273
g993
sS'estimate-af15d890-9566-4996-ab77-7595a893090d.yaml'
p1274
g255
sS'task-5eba6929-4fb0-42f2-83db-4460df767e54.yaml'
p1275
g838
sS'task-b4ca977e-c2d9-4939-92a5-132c732bec16.yaml'
p1276
g621
sS'tag-f9c42194-191b-47ab-b66b-a8490c6fe07e.yaml'
p1277
g348
sS'status-7f484bec-75e5-48e6-8f7a-a2a554a2cb0b.yaml'
p1278
g91
sS'task-6fc28295-fb43-479b-8fdb-f0818bd7f04f.yaml'
p1279
g931
sS'task-389a846b-a633-48dd-9e4e-c15d90c81315.yaml'
p1280
g714
sS'tag-7450a119-4235-422b-ac95-256fcc592a78.yaml'
p1281
g394
sS'task-8805a345-d175-464c-939d-f5cd411b827d.yaml'
p1282
g745
sS'task-728e0b3f-8662-4d68-892f-7cef253fd1e6.yaml'
p1283
g1024
sS'task-9f0d0996-6cea-4f0d-8a94-0f2c09962fc0.yaml'
p1284
g776
sS'milestone-570ce000-20d2-47c7-9d49-e554a28f2c83.yaml'
p1285
g164
sS'task-8f75759b-f157-4f15-b0ed-7d3f596008be.yaml'
p1286
g1179
sS'status-8b203f85-d12b-47ad-ac39-cdff78453e8b.yaml'
p1287
g79
sS'estimate-c771fe5b-b86a-45d4-a4ca-e78968b15a7b.yaml'
p1288
g176
sS'task-0b051ded-5be0-4089-af58-be8e567a5497.yaml'
p1289
g807
sS'status-2827cfe2-e2a3-41c1-b052-edd9c48a6035.yaml'
p1290
g103
sS'person-3aaebef2-82dc-4e76-8a1e-7aafa180e49d.yaml'
p1291
g188
sS'task-d3dce3c9-b4f5-41fd-8e68-00340bae3d45.yaml'
p1292
g1241
sS'task-7f68216d-599f-4fcf-9d16-51de41fdba76.yaml'
p1293
g683
sS'task-a291a64f-08a7-4db4-b659-d791bbfa0a95.yaml'
p1294
g962
sS'tag-f0ce2536-a0ea-4978-bbe5-9b72e06f7f4e.yaml'
p1295
g442
ssS'entities_by_frag'
p1296
(dp1297
g669
g683
sg400
g418
sg979
g993
sg731
g745
sg574
g590
sg824
g838
sg1196
g1210
sg607
g621
sg95
g103
sg700
g714
sg1041
g1055
sg638
g652
sg542
g556
sg108
g116
sg238
g255
sg123
g141
sS'3aaebe'
p1298
g188
sS'7f484b'
p1299
g91
sg308
g325
sg948
g962
sg1010
g1024
sg424
g442
sg284
g302
sg1165
g1179
sg1227
g1241
sS'742a44'
p1300
g55
sg762
g776
sg453
g463
sS'570ce0'
p1301
g164
sg1134
g1148
sg1072
g1086
sg793
g807
sg260
g278
sg1103
g1117
sg480
g494
sg511
g525
sg330
g348
sg886
g900
sg376
g394
sg354
g371
sS'e1d9fc'
p1302
g43
sg71
g79
sg855
g869
sS'c771fe'
p1303
g176
sg216
g233
sg917
g931
sg59
g67
sg194
g211
ssS'entities_by_uuid'
p1304
(dp1305
g1083
g1086
sg31
g43
sg579
g590
sg264
g278
sg49
g55
sg959
g962
sg1114
g1117
sg804
g807
sg288
g302
sg240
g255
sg835
g838
sg461
g463
sg334
g348
sg85
g91
sg61
g67
sg491
g494
sg218
g233
sg553
g556
sg742
g745
sg990
g993
sg522
g525
sg110
g116
sg680
g683
sg428
g442
sg150
g164
sg773
g776
sg169
g176
sg1207
g1210
sg1052
g1055
sg127
g141
sg1021
g1024
sg73
g79
sg897
g900
sg380
g394
sg1238
g1241
sg404
g418
sg618
g621
sg649
g652
sg196
g211
sg928
g931
sg866
g869
sg711
g714
sg182
g188
sg1145
g1148
sg97
g103
sg1176
g1179
sg356
g371
sg310
g325
ssS'pidfile'
p1306
S'/home/jc593/Dev/cauv/code/pitzdir/pitz.pid'
p1307
sS'jinja_template'
p1308
S'bag.html'
p1309
sb.
