ccopy_reg
_reconstructor
p1
(cpitz.project
Project
p2
c__builtin__
object
p3
NtRp4
(dp5
S'uuid'
p6
g1
(cuuid
UUID
p7
g3
NtRp8
(dp9
S'int'
p10
L6915932614321907892402658296689213522L
sbsS'_html_filename'
p11
NsS'title'
p12
S'cauv'
p13
sS'_shell_mode'
p14
I00
sS'order_method'
p15
cpitz
by_milestone_status_pscore_created_time
p16
sS'loaded_from'
p17
S'pickle'
p18
sS'pathname'
p19
S'/home/jc593/Dev/cauv/code/pitzdir'
p20
sS'_elements'
p21
(lp22
g1
(cpitz.entity
Status
p23
c__builtin__
dict
p24
(dp25
S'pscore'
p26
I100
sS'frag'
p27
S'e1d9fc'
p28
sS'attached_files'
p29
(lp30
sg6
g1
(g7
g3
NtRp31
(dp32
g10
L300208156334241880201290222579226582105L
sbsg12
S'finished'
p33
sS'modified_time'
p34
cdatetime
datetime
p35
(S'\x07\xda\x0b\x04\x11.\x16\x0c\xa05'
tRp36
sS'created_time'
p37
g36
sS'type'
p38
S'status'
p39
sS'yaml_file_saved'
p40
g35
(S'\x07\xda\x0b\x04\x11. \x07\xfe"'
tRp41
sS'description'
p42
S''
stRp43
(dp44
g26
I100
sg27
g28
sg29
(lp45
sg6
g31
sg12
g33
sg34
g36
sg37
g36
sg38
g39
sg40
g41
sg42
S''
sbag1
(g23
g24
(dp46
g26
I50
sg27
S'742a44'
p47
sg29
(lp48
sg6
g1
(g7
g3
NtRp49
(dp50
g10
L154409908609622189382556686006061208230L
sbsg12
S'started'
p51
sg34
g35
(S'\x07\xda\x0b\x04\x11.\x16\x0c\xa5o'
tRp52
sg37
g52
sg38
S'status'
p53
sg40
g35
(S'\x07\xda\x0b\x04\x11. \x08\t\x8a'
tRp54
sg42
S''
stRp55
(dp56
g26
I50
sg27
g47
sg29
(lp57
sg6
g49
sg12
g51
sg34
g52
sg37
g52
sg38
g53
sg40
g54
sg42
S''
sbag1
(g23
g24
(dp58
g26
I40
sg27
S'25175b'
p59
sg29
(lp60
sg6
g1
(g7
g3
NtRp61
(dp62
g10
L49302717939597338662509329691997652165L
sbsg12
S'paused'
p63
sg34
g35
(S'\x07\xda\x0b\x04\x11.\x16\x0c\xa6\x96'
tRp64
sg37
g64
sg38
S'status'
p65
sg40
g35
(S'\x07\xda\x0b\x04\x11. \x08\x14 '
tRp66
sg42
S''
stRp67
(dp68
g26
I40
sg27
g59
sg29
(lp69
sg6
g61
sg12
g63
sg34
g64
sg37
g64
sg38
g65
sg40
g66
sg42
S''
sbag1
(g23
g24
(dp70
g26
I30
sg27
S'8b203f'
p71
sg29
(lp72
sg6
g1
(g7
g3
NtRp73
(dp74
g10
L184930133307461754624757499539547831947L
sbsg12
S'queued'
p75
sg34
g35
(S'\x07\xda\x0b\x04\x11.\x16\x0c\xa7\xad'
tRp76
sg37
g76
sg38
S'status'
p77
sg40
g35
(S'\x07\xda\x0b\x04\x11. \x08\x1e\x0f'
tRp78
sg42
S''
stRp79
(dp80
g26
I30
sg27
g71
sg29
(lp81
sg6
g73
sg12
g75
sg34
g76
sg37
g76
sg38
g77
sg40
g78
sg42
S''
sbag1
(g23
g24
(dp82
g26
I20
sg27
S'7f484b'
p83
sg29
(lp84
sg6
g1
(g7
g3
NtRp85
(dp86
g10
L169187340753552385114968941926541347595L
sbsg12
S'unstarted'
p87
sg34
g35
(S'\x07\xda\x0b\x04\x11.\x16\x0c\xa8\xc5'
tRp88
sg37
g88
sg38
S'status'
p89
sg40
g35
(S'\x07\xda\x0b\x04\x11. \x08(\x89'
tRp90
sg42
S''
stRp91
(dp92
g26
I20
sg27
g83
sg29
(lp93
sg6
g85
sg12
g87
sg34
g88
sg37
g88
sg38
g89
sg40
g90
sg42
S''
sbag1
(g23
g24
(dp94
g26
I10
sg27
S'2827cf'
p95
sg29
(lp96
sg6
g1
(g7
g3
NtRp97
(dp98
g10
L53375835843373154968152666848489005109L
sbsg12
S'abandoned'
p99
sg34
g35
(S'\x07\xda\x0b\x04\x11.\x16\x0c\xa9\xeb'
tRp100
sg37
g100
sg38
S'status'
p101
sg40
g35
(S'\x07\xda\x0b\x04\x11. \x082\xed'
tRp102
sg42
S''
stRp103
(dp104
g26
I10
sg27
g95
sg29
(lp105
sg6
g97
sg12
g99
sg34
g100
sg37
g100
sg38
g101
sg40
g102
sg42
S''
sbag1
(cpitz.entity.person
Person
p106
g24
(dp107
g26
I0
sg27
S'b1d6c1'
p108
sg29
(lp109
sg6
g1
(g7
g3
NtRp110
(dp111
g10
L236388421408798579890985238796729312670L
sbsg12
S'James Crosby'
p112
sg34
g35
(S'\x07\xda\x0b\x04\x11. \x07\xfc\xae'
tRp113
sg37
g113
sg38
S'person'
p114
sg40
g35
(S'\x07\xda\x0b\x04\x11. \x08<\xe9'
tRp115
sg42
S''
stRp116
(dp117
g26
I0
sg27
g108
sg29
(lp118
sg6
g110
sg12
g112
sg34
g113
sg37
g113
sg38
g114
sg40
g115
sg42
S''
sbag1
(cpitz.entity
Tag
p119
g24
(dp120
S'pscore'
p121
I0
sS'frag'
p122
S'946c0c'
p123
sS'attached_files'
p124
(lp125
sS'uuid'
p126
g1
(g7
g3
NtRp127
(dp128
S'int'
p129
L197286768475377705411888986497368205084L
sbsS'title'
p130
S'testing'
p131
sS'modified_time'
p132
g35
(S'\x07\xda\x0b\x04\x111*\x05\xb8\xcf'
tRp133
sS'created_time'
p134
g133
sS'type'
p135
S'tag'
p136
sS'yaml_file_saved'
p137
g35
(S'\x07\xda\x0b\x04\x111*\x05\xbb\xbd'
tRp138
sS'description'
p139
S'Things related to testing.'
p140
stRp141
(dp142
g121
I0
sg122
g123
sg124
(lp143
sg126
g127
sg130
g131
sg132
g133
sg134
g133
sg135
g136
sg137
g138
sg139
g140
sbag1
(cpitz.entity
Milestone
p144
g24
(dp145
S'pscore'
p146
I0
sS'frag'
p147
S'570ce0'
p148
sS'uuid'
p149
g1
(g7
g3
NtRp150
(dp151
S'int'
p152
L115709686465499050555006855212442791043L
sbsS'title'
p153
S'unscheduled'
p154
sS'modified_time'
p155
g35
(S'\x07\xda\x0b\x04\x1110\x04\xd9/'
tRp156
sS'created_time'
p157
g156
sS'reached'
p158
I00
sS'type'
p159
S'milestone'
p160
sS'yaml_file_saved'
p161
g35
(S'\x07\xda\x0b\x04\x112&\x00\x81\xec'
tRp162
sS'description'
p163
S''
stRp164
(dp165
g146
I0
sg147
g148
sg149
g150
sg153
g154
sg155
g156
sg157
g156
sg158
I00
sg159
g160
sg161
g162
sg163
S''
sbag1
(cpitz.entity
Estimate
p166
g24
(dp167
g146
I0
sg147
S'c771fe'
p168
sg149
g1
(g7
g3
NtRp169
(dp170
g152
L265108259705088528262102217610008550011L
sbsg153
S'not estimated'
p171
sg155
g35
(S'\x07\xda\x0b\x04\x1110\x04\xda\xb6'
tRp172
sS'points'
p173
I0
sg157
g172
sg159
S'estimate'
p174
sg161
g35
(S'\x07\xda\x0b\x04\x112&\x00\x8f\xa2'
tRp175
sg163
S''
stRp176
(dp177
g146
I0
sg147
g168
sg149
g169
sg153
g171
sg155
g172
sg173
I0
sg157
g172
sg159
g174
sg161
g175
sg163
S''
sbag1
(g106
g24
(dp178
g146
I0
sg147
S'3aaebe'
p179
sS'attached_files'
p180
(lp181
sg149
g1
(g7
g3
NtRp182
(dp183
g152
L78002556280449588393479432476918080669L
sbsg153
S'no owner'
p184
sg155
g35
(S'\x07\xda\x0b\x04\x1110\x04\xdc\x19'
tRp185
sg157
g185
sg159
S'person'
p186
sg161
g35
(S'\x07\xda\x0b\x04\x112&\x00\x9c\x11'
tRp187
sg163
S''
stRp188
(dp189
g146
I0
sg147
g179
sg180
(lp190
sg149
g182
sg153
g184
sg155
g185
sg157
g185
sg159
g186
sg161
g187
sg163
S''
sbag1
(cpitz.entity.task
Task
p191
g24
(dp192
S'status'
p193
g91
sg146
I0
sg163
S'Our testing is currently completely add hoc, and largely absent. We should use\nthe CMake ctest tool, or something else, to do proper regression tests.\nWhatever is chosen, it must be easy to add tests, and easy to see run the tests\nand see results.\n\nThis task concerns only the testing framework and not any actual tests.'
p194
sg153
S'Testing Framework'
p195
sS'tags'
p196
(lp197
g141
asg155
g35
(S'\x07\xda\x0b\x04\x112&\x00\x7f\xa8'
tRp198
sS'owner'
p199
g188
sg147
S'cbcbce'
p200
sS'components'
p201
(lp202
sS'milestone'
p203
g164
sg157
g198
sS'estimate'
p204
g176
sg159
S'task'
p205
sg161
g35
(S'\x07\xda\x0b\x04\x112&\x00\xa9e'
tRp206
sg149
g1
(g7
g3
NtRp207
(dp208
g152
L270891506143537094358496111725559148591L
sbstRp209
(dp210
g193
g85
sg146
I0
sg163
g194
sg153
g195
sg196
(lp211
g127
asg155
g198
sg199
g182
sg147
g200
sg201
(lp212
sg203
g150
sg157
g198
sg204
g169
sg159
g205
sg161
g206
sg149
g207
sbasS'rerun_sort_after_append'
p213
I01
sS'entities_by_yaml_filename'
p214
(dp215
S'status-8b203f85-d12b-47ad-ac39-cdff78453e8b.yaml'
p216
g79
sS'status-e1d9fcdf-5e75-4b2f-a76b-73ebe11d1c59.yaml'
p217
g43
sS'status-2827cfe2-e2a3-41c1-b052-edd9c48a6035.yaml'
p218
g103
sS'status-742a4444-7e7c-4def-a18a-a1d8540d92a6.yaml'
p219
g55
sS'person-3aaebef2-82dc-4e76-8a1e-7aafa180e49d.yaml'
p220
g188
sS'task-cbcbce6c-0c97-45f9-af4b-390d0873f02f.yaml'
p221
g209
sS'estimate-c771fe5b-b86a-45d4-a4ca-e78968b15a7b.yaml'
p222
g176
sS'status-25175bab-424d-45e9-948c-dafb7dec44c5.yaml'
p223
g67
sS'status-7f484bec-75e5-48e6-8f7a-a2a554a2cb0b.yaml'
p224
g91
sS'tag-946c0cac-4826-47b7-afeb-c70ac6ec271c.yaml'
p225
g141
sS'milestone-570ce000-20d2-47c7-9d49-e554a28f2c83.yaml'
p226
g164
sS'person-b1d6c101-8a7d-4024-840a-86828583e59e.yaml'
p227
g116
ssS'entities_by_frag'
p228
(dp229
g108
g116
sS'742a44'
p230
g55
sg123
g141
sS'e1d9fc'
p231
g43
sg148
g164
sg179
g188
sg71
g79
sg200
g209
sS'7f484b'
p232
g91
sg95
g103
sg168
g176
sg59
g67
ssS'entities_by_uuid'
p233
(dp234
g110
g116
sg97
g103
sg31
g43
sg150
g164
sg61
g67
sg169
g176
sg85
g91
sg182
g188
sg127
g141
sg49
g55
sg207
g209
sg73
g79
ssS'pidfile'
p235
S'/home/jc593/Dev/cauv/code/pitzdir/pitz.pid'
p236
sS'jinja_template'
p237
S'bag.html'
p238
sb.